(lp0
(dp1
S'Right_centre'
p2
(I32
I33
tp3
sS'Left_centre'
p4
(I12
I32
tp5
sS'Location'
p6
(lp7
I214
aI228
asS'Time'
p8
F1477476689993.5142
sS'Ball_centre'
p9
NsS'Heading'
p10
F1.6207547225168393
sa(dp11
g2
(I31
I33
tp12
sg4
(I11
I32
tp13
sg6
(lp14
I213
aI228
asg8
F1477476690161.4028
sg9
Nsg10
F1.6207547225168393
sa(dp15
g2
(I31
I33
tp16
sg4
(I11
I32
tp17
sg6
(lp18
I213
aI228
asg8
F1477476693704.3582
sg9
Nsg10
F1.6207547225168393
sa.