(lp0
(dp1
S'Left_centre'
p2
(I86
I18
tp3
sS'Right_centre'
p4
(I91
I36
tp5
sS'Location'
p6
(lp7
I88
aI27
asS'Heading'
p8
F2.356194490192345
sS'Time'
p9
F1476509830903.995
sa(dp10
g2
(I86
I18
tp11
sg4
(I92
I36
tp12
sg6
(lp13
I89
aI27
asg8
F2.356194490192345
sg9
F1476509831319.866
sa(dp14
g2
(I86
I18
tp15
sg4
(I91
I36
tp16
sg6
(lp17
I88
aI27
asg8
F2.356194490192345
sg9
F1476509832943.5688
sa(dp18
g2
(I86
I18
tp19
sg4
(I90
I36
tp20
sg6
(lp21
I88
aI27
asg8
F2.356194490192345
sg9
F1476509833371.489
sa(dp22
g2
(I71
I10
tp23
sg4
(I90
I38
tp24
sg6
(lp25
I80
aI24
asg8
F2.356194490192345
sg9
F1476509833848.238
sa(dp26
g2
(I73
I11
tp27
sg4
(I90
I36
tp28
sg6
(lp29
I81
aI23
asg8
F2.356194490192345
sg9
F1476509834089.883
sa(dp30
g2
(I86
I18
tp31
sg4
(I91
I37
tp32
sg6
(lp33
I88
aI27
asg8
F2.356194490192345
sg9
F1476509834222.458
sa(dp34
g2
(I74
I14
tp35
sg4
(I89
I38
tp36
sg6
(lp37
I81
aI26
asg8
F2.356194490192345
sg9
F1476509834632.09
sa(dp38
g2
(I71
I17
tp39
sg4
(I78
I37
tp40
sg6
(lp41
I74
aI27
asg8
F2.356194490192345
sg9
F1476509834691.27
sa(dp42
g2
(I71
I20
tp43
sg4
(I76
I40
tp44
sg6
(lp45
I73
aI30
asg8
F2.356194490192345
sg9
F1476509834824.774
sa(dp46
g2
(I63
I22
tp47
sg4
(I67
I42
tp48
sg6
(lp49
I65
aI32
asg8
F2.356194490192345
sg9
F1476509835003.969
sa(dp50
g2
(I54
I25
tp51
sg4
(I59
I47
tp52
sg6
(lp53
I56
aI36
asg8
F2.356194490192345
sg9
F1476509835132.781
sa(dp54
g2
(I50
I29
tp55
sg4
(I49
I50
tp56
sg6
(lp57
I49
aI39
asg8
F3.141592653589793
sg9
F1476509835235.7832
sa(dp58
g2
(I49
I35
tp59
sg4
(I51
I56
tp60
sg6
(lp61
I50
aI45
asg8
F2.356194490192345
sg9
F1476509835424.044
sa(dp62
g2
(I46
I40
tp63
sg4
(I50
I61
tp64
sg6
(lp65
I48
aI50
asg8
F2.356194490192345
sg9
F1476509835475.566
sa(dp66
g2
(I48
I47
tp67
sg4
(I47
I67
tp68
sg6
(lp69
I47
aI57
asg8
F3.141592653589793
sg9
F1476509835541.848
sa(dp70
g2
(I48
I49
tp71
sg4
(I50
I71
tp72
sg6
(lp73
I49
aI60
asg8
F2.356194490192345
sg9
F1476509835630.105
sa(dp74
g2
(I49
I52
tp75
sg4
(I50
I72
tp76
sg6
(lp77
I49
aI62
asg8
F2.356194490192345
sg9
F1476509835801.27
sa(dp78
g2
(I50
I58
tp79
sg4
(I51
I81
tp80
sg6
(lp81
I50
aI69
asg8
F2.356194490192345
sg9
F1476509835873.57
sa(dp82
g2
(I54
I65
tp83
sg4
(I57
I87
tp84
sg6
(lp85
I55
aI76
asg8
F2.356194490192345
sg9
F1476509835954.549
sa(dp86
g2
(I56
I70
tp87
sg4
(I56
I90
tp88
sg6
(lp89
I56
aI80
asg8
F3.141592653589793
sg9
F1476509836120.1711
sa(dp90
g2
(I56
I77
tp91
sg4
(I58
I99
tp92
sg6
(lp93
I57
aI88
asg8
F2.356194490192345
sg9
F1476509836288.104
sa(dp94
g2
(I60
I86
tp95
sg4
(I61
I108
tp96
sg6
(lp97
I60
aI97
asg8
F2.356194490192345
sg9
F1476509836416.3562
sa(dp98
g2
(I61
I95
tp99
sg4
(I62
I118
tp100
sg6
(lp101
I61
aI106
asg8
F2.356194490192345
sg9
F1476509836523.694
sa(dp102
g2
(I64
I105
tp103
sg4
(I68
I127
tp104
sg6
(lp105
I66
aI116
asg8
F2.356194490192345
sg9
F1476509836614.368
sa(dp106
g2
(I67
I115
tp107
sg4
(I70
I137
tp108
sg6
(lp109
I68
aI126
asg8
F2.356194490192345
sg9
F1476509836685.565
sa(dp110
g2
(I69
I119
tp111
sg4
(I72
I142
tp112
sg6
(lp113
I70
aI130
asg8
F2.356194490192345
sg9
F1476509836873.687
sa(dp114
g2
(I71
I129
tp115
sg4
(I73
I150
tp116
sg6
(lp117
I72
aI139
asg8
F2.356194490192345
sg9
F1476509837009.213
sa(dp118
g2
(I73
I136
tp119
sg4
(I74
I159
tp120
sg6
(lp121
I73
aI147
asg8
F2.356194490192345
sg9
F1476509837114.1
sa(dp122
g2
(I78
I145
tp123
sg4
(I75
I167
tp124
sg6
(lp125
I76
aI156
asg8
F3.141592653589793
sg9
F1476509837259.345
sa(dp126
g2
(I81
I156
tp127
sg4
(I79
I176
tp128
sg6
(lp129
I80
aI166
asg8
F3.141592653589793
sg9
F1476509837400.1628
sa(dp130
g2
(I80
I168
tp131
sg4
(I75
I189
tp132
sg6
(lp133
I77
aI178
asg8
F3.141592653589793
sg9
F1476509837506.908
sa(dp134
g2
(I80
I184
tp135
sg4
(I73
I200
tp136
sg6
(lp137
I76
aI192
asg8
F3.141592653589793
sg9
F1476509837669.3772
sa(dp138
g2
(I55
I248
tp139
sg4
(I66
I230
tp140
sg6
(lp141
I60
aI239
asg8
F0.0
sg9
F1476509838457.722
sa(dp142
g2
(I52
I249
tp143
sg4
(I65
I232
tp144
sg6
(lp145
I58
aI240
asg8
F0.0
sg9
F1476509838591.4631
sa(dp146
g2
(I38
I237
tp147
sg4
(I57
I217
tp148
sg6
(lp149
I47
aI227
asg8
F0.0
sg9
F1476509838984.405
sa(dp150
g2
(I31
I229
tp151
sg4
(I53
I210
tp152
sg6
(lp153
I42
aI219
asg8
F0.7853981633974483
sg9
F1476509839115.583
sa.