(lp0
(dp1
S'Right_centre'
p2
(I494
I364
tp3
sS'Left_centre'
p4
(I497
I339
tp5
sS'Location'
p6
(lp7
I495
aI351
asS'Time'
p8
F1476875923219.1938
sS'Ball_centre'
p9
(I290
I604
tp10
sS'Heading'
p11
F3.2610215796081317
sa(dp12
g2
(I494
I364
tp13
sg4
(I498
I340
tp14
sg6
(lp15
I496
aI352
asg8
F1476875923379.543
sg9
(I291
I604
tp16
sg11
F3.30674133100442
sa(dp17
g2
(I494
I364
tp18
sg4
(I498
I340
tp19
sg6
(lp20
I496
aI352
asg8
F1476875923527.332
sg9
(I290
I604
tp21
sg11
F3.30674133100442
sa(dp22
g2
(I494
I364
tp23
sg4
(I497
I340
tp24
sg6
(lp25
I495
aI352
asg8
F1476875923645.8
sg9
(I289
I604
tp26
sg11
F3.2659476481365544
sa(dp27
g2
(I494
I364
tp28
sg4
(I498
I340
tp29
sg6
(lp30
I496
aI352
asg8
F1476875923762.948
sg9
(I290
I604
tp31
sg11
F3.30674133100442
sa(dp32
g2
(I494
I364
tp33
sg4
(I498
I340
tp34
sg6
(lp35
I496
aI352
asg8
F1476875923880.011
sg9
(I290
I604
tp36
sg11
F3.30674133100442
sa(dp37
g2
(I494
I363
tp38
sg4
(I497
I340
tp39
sg6
(lp40
I495
aI351
asg8
F1476875923991.3088
sg9
(I289
I604
tp41
sg11
F3.2712951907457053
sa(dp42
g2
(I495
I364
tp43
sg4
(I497
I340
tp44
sg6
(lp45
I496
aI352
asg8
F1476875924081.95
sg9
(I290
I604
tp46
sg11
F3.2247338854782344
sa(dp47
g2
(I494
I364
tp48
sg4
(I497
I339
tp49
sg6
(lp50
I495
aI351
asg8
F1476875924175.956
sg9
(I290
I604
tp51
sg11
F3.2610215796081317
sa(dp52
g2
(I494
I364
tp53
sg4
(I498
I339
tp54
sg6
(lp55
I496
aI351
asg8
F1476875924300.766
sg9
(I289
I604
tp56
sg11
F3.3002479157761946
sa(dp57
g2
(I494
I364
tp58
sg4
(I497
I340
tp59
sg6
(lp60
I495
aI352
asg8
F1476875924404.017
sg9
(I289
I604
tp61
sg11
F3.2659476481365544
sa(dp62
g2
(I493
I363
tp63
sg4
(I497
I339
tp64
sg6
(lp65
I495
aI351
asg8
F1476875924505.952
sg9
(I291
I604
tp66
sg11
F3.30674133100442
sa(dp67
g2
(I493
I364
tp68
sg4
(I497
I339
tp69
sg6
(lp70
I495
aI351
asg8
F1476875924597.903
sg9
(I290
I604
tp71
sg11
F3.3002479157761946
sa(dp72
g2
(I494
I364
tp73
sg4
(I498
I340
tp74
sg6
(lp75
I496
aI352
asg8
F1476875924696.393
sg9
(I290
I604
tp76
sg11
F3.30674133100442
sa(dp77
g2
(I493
I363
tp78
sg4
(I498
I340
tp79
sg6
(lp80
I495
aI351
asg8
F1476875924787.0369
sg9
(I290
I604
tp81
sg11
F3.3556533371536146
sa(dp82
g2
(I494
I364
tp83
sg4
(I497
I339
tp84
sg6
(lp85
I495
aI351
asg8
F1476875924915.206
sg9
(I291
I604
tp86
sg11
F3.2610215796081317
sa(dp87
g2
(I494
I364
tp88
sg4
(I498
I340
tp89
sg6
(lp90
I496
aI352
asg8
F1476875925107.476
sg9
(I289
I604
tp91
sg11
F3.30674133100442
sa(dp92
g2
(I494
I364
tp93
sg4
(I497
I340
tp94
sg6
(lp95
I495
aI352
asg8
F1476875925242.52
sg9
(I289
I604
tp96
sg11
F3.2659476481365544
sa(dp97
g2
(I494
I364
tp98
sg4
(I497
I339
tp99
sg6
(lp100
I495
aI351
asg8
F1476875925359.375
sg9
(I289
I604
tp101
sg11
F3.2610215796081317
sa(dp102
g2
(I494
I364
tp103
sg4
(I498
I340
tp104
sg6
(lp105
I496
aI352
asg8
F1476875925488.591
sg9
(I289
I604
tp106
sg11
F3.30674133100442
sa(dp107
g2
(I494
I364
tp108
sg4
(I497
I340
tp109
sg6
(lp110
I495
aI352
asg8
F1476875925597.303
sg9
(I290
I604
tp111
sg11
F3.2659476481365544
sa(dp112
g2
(I494
I364
tp113
sg4
(I498
I339
tp114
sg6
(lp115
I496
aI351
asg8
F1476875925687.9858
sg9
(I291
I604
tp116
sg11
F3.3002479157761946
sa(dp117
g2
(I493
I363
tp118
sg4
(I497
I340
tp119
sg6
(lp120
I495
aI351
asg8
F1476875925787.315
sg9
(I289
I604
tp121
sg11
F3.313783468112732
sa(dp122
g2
(I493
I363
tp123
sg4
(I498
I340
tp124
sg6
(lp125
I495
aI351
asg8
F1476875925881.49
sg9
(I290
I604
tp126
sg11
F3.3556533371536146
sa(dp127
g2
(I494
I364
tp128
sg4
(I497
I340
tp129
sg6
(lp130
I495
aI352
asg8
F1476875925980.299
sg9
(I290
I604
tp131
sg11
F3.2659476481365544
sa(dp132
g2
(I494
I364
tp133
sg4
(I497
I340
tp134
sg6
(lp135
I495
aI352
asg8
F1476875926138.009
sg9
(I289
I604
tp136
sg11
F3.2659476481365544
sa(dp137
g2
(I493
I363
tp138
sg4
(I497
I340
tp139
sg6
(lp140
I495
aI351
asg8
F1476875926261.838
sg9
(I289
I604
tp141
sg11
F3.313783468112732
sa(dp142
g2
(I495
I364
tp143
sg4
(I498
I340
tp144
sg6
(lp145
I496
aI352
asg8
F1476875926379.396
sg9
(I289
I604
tp146
sg11
F3.2659476481365544
sa(dp147
g2
(I494
I364
tp148
sg4
(I498
I340
tp149
sg6
(lp150
I496
aI352
asg8
F1476875926478.033
sg9
(I290
I604
tp151
sg11
F3.30674133100442
sa(dp152
g2
(I494
I364
tp153
sg4
(I498
I340
tp154
sg6
(lp155
I496
aI352
asg8
F1476875926580.7869
sg9
(I290
I604
tp156
sg11
F3.30674133100442
sa(dp157
g2
(I493
I363
tp158
sg4
(I498
I340
tp159
sg6
(lp160
I495
aI351
asg8
F1476875926709.383
sg9
(I290
I604
tp161
sg11
F3.3556533371536146
sa(dp162
g2
(I494
I364
tp163
sg4
(I498
I340
tp164
sg6
(lp165
I496
aI352
asg8
F1476875926814.2642
sg9
(I289
I604
tp166
sg11
F3.30674133100442
sa(dp167
g2
(I494
I364
tp168
sg4
(I498
I340
tp169
sg6
(lp170
I496
aI352
asg8
F1476875926922.334
sg9
(I290
I604
tp171
sg11
F3.30674133100442
sa(dp172
g2
(I494
I364
tp173
sg4
(I498
I340
tp174
sg6
(lp175
I496
aI352
asg8
F1476875927055.468
sg9
(I291
I604
tp176
sg11
F3.30674133100442
sa(dp177
g2
(I494
I364
tp178
sg4
(I497
I339
tp179
sg6
(lp180
I495
aI351
asg8
F1476875927175.56
sg9
(I289
I604
tp181
sg11
F3.2610215796081317
sa(dp182
g2
(I495
I364
tp183
sg4
(I498
I340
tp184
sg6
(lp185
I496
aI352
asg8
F1476875927327.018
sg9
(I290
I604
tp186
sg11
F3.2659476481365544
sa(dp187
g2
(I494
I364
tp188
sg4
(I497
I340
tp189
sg6
(lp190
I495
aI352
asg8
F1476875927453.315
sg9
(I289
I604
tp191
sg11
F3.2659476481365544
sa(dp192
g2
(I494
I364
tp193
sg4
(I498
I340
tp194
sg6
(lp195
I496
aI352
asg8
F1476875927568.778
sg9
(I290
I604
tp196
sg11
F3.30674133100442
sa(dp197
g2
(I494
I364
tp198
sg4
(I497
I339
tp199
sg6
(lp200
I495
aI351
asg8
F1476875927704.852
sg9
(I290
I604
tp201
sg11
F3.2610215796081317
sa(dp202
g2
(I494
I364
tp203
sg4
(I498
I340
tp204
sg6
(lp205
I496
aI352
asg8
F1476875927825.447
sg9
(I290
I604
tp206
sg11
F3.30674133100442
sa(dp207
g2
(I494
I364
tp208
sg4
(I498
I340
tp209
sg6
(lp210
I496
aI352
asg8
F1476875927930.043
sg9
(I290
I604
tp211
sg11
F3.30674133100442
sa(dp212
g2
(I494
I363
tp213
sg4
(I498
I339
tp214
sg6
(lp215
I496
aI351
asg8
F1476875928066.271
sg9
(I289
I604
tp216
sg11
F3.30674133100442
sa(dp217
g2
(I494
I364
tp218
sg4
(I497
I340
tp219
sg6
(lp220
I495
aI352
asg8
F1476875928199.576
sg9
(I289
I604
tp221
sg11
F3.2659476481365544
sa(dp222
g2
(I494
I364
tp223
sg4
(I498
I340
tp224
sg6
(lp225
I496
aI352
asg8
F1476875928361.803
sg9
(I291
I604
tp226
sg11
F3.30674133100442
sa(dp227
g2
(I494
I364
tp228
sg4
(I497
I339
tp229
sg6
(lp230
I495
aI351
asg8
F1476875928540.273
sg9
(I289
I604
tp231
sg11
F3.2610215796081317
sa(dp232
g2
(I494
I364
tp233
sg4
(I497
I340
tp234
sg6
(lp235
I495
aI352
asg8
F1476875928654.0698
sg9
(I291
I604
tp236
sg11
F3.2659476481365544
sa(dp237
g2
(I494
I364
tp238
sg4
(I498
I340
tp239
sg6
(lp240
I496
aI352
asg8
F1476875928765.2668
sg9
(I290
I604
tp241
sg11
F3.30674133100442
sa(dp242
g2
(I494
I364
tp243
sg4
(I498
I340
tp244
sg6
(lp245
I496
aI352
asg8
F1476875928881.63
sg9
(I289
I604
tp246
sg11
F3.30674133100442
sa(dp247
g2
(I495
I364
tp248
sg4
(I497
I340
tp249
sg6
(lp250
I496
aI352
asg8
F1476875929026.6409
sg9
(I290
I604
tp251
sg11
F3.2247338854782344
sa(dp252
g2
(I493
I363
tp253
sg4
(I498
I340
tp254
sg6
(lp255
I495
aI351
asg8
F1476875929183.838
sg9
(I290
I604
tp256
sg11
F3.3556533371536146
sa(dp257
g2
(I494
I364
tp258
sg4
(I497
I339
tp259
sg6
(lp260
I495
aI351
asg8
F1476875929327.959
sg9
(I290
I604
tp261
sg11
F3.2610215796081317
sa.