(lp0
(dp1
S'Left_centre'
p2
(I317
I318
tp3
sS'Right_centre'
p4
(I333
I298
tp5
sS'Location'
p6
(lp7
I325
aI308
asS'Heading'
p8
F0.6747409422235527
sS'Time'
p9
F1476531137787.2788
sa(dp10
g2
(I317
I318
tp11
sg4
(I332
I298
tp12
sg6
(lp13
I324
aI308
asg8
F0.6435011087932844
sg9
F1476531137863.478
sa(dp14
g2
(I316
I318
tp15
sg4
(I332
I298
tp16
sg6
(lp17
I324
aI308
asg8
F0.6747409422235527
sg9
F1476531137935.965
sa(dp18
g2
(I317
I318
tp19
sg4
(I332
I298
tp20
sg6
(lp21
I324
aI308
asg8
F0.6435011087932844
sg9
F1476531137999.531
sa(dp22
g2
(I317
I318
tp23
sg4
(I332
I298
tp24
sg6
(lp25
I324
aI308
asg8
F0.6435011087932844
sg9
F1476531138085.774
sa(dp26
g2
(I317
I318
tp27
sg4
(I332
I298
tp28
sg6
(lp29
I324
aI308
asg8
F0.6435011087932844
sg9
F1476531138143.044
sa(dp30
g2
(I317
I319
tp31
sg4
(I332
I298
tp32
sg6
(lp33
I324
aI308
asg8
F0.6202494859828215
sg9
F1476531138189.2148
sa(dp34
g2
(I317
I318
tp35
sg4
(I332
I298
tp36
sg6
(lp37
I324
aI308
asg8
F0.6435011087932844
sg9
F1476531138236.4458
sa(dp38
g2
(I317
I319
tp39
sg4
(I332
I298
tp40
sg6
(lp41
I324
aI308
asg8
F0.6202494859828215
sg9
F1476531138286.478
sa(dp42
g2
(I316
I317
tp43
sg4
(I333
I298
tp44
sg6
(lp45
I324
aI307
asg8
F0.7298996581517315
sg9
F1476531138345.722
sa(dp46
g2
(I317
I318
tp47
sg4
(I332
I298
tp48
sg6
(lp49
I324
aI308
asg8
F0.6435011087932844
sg9
F1476531138383.748
sa(dp50
g2
(I317
I318
tp51
sg4
(I332
I298
tp52
sg6
(lp53
I324
aI308
asg8
F0.6435011087932844
sg9
F1476531138425.26
sa(dp54
g2
(I316
I317
tp55
sg4
(I332
I298
tp56
sg6
(lp57
I324
aI307
asg8
F0.6998928697192437
sg9
F1476531138482.157
sa(dp58
g2
(I317
I318
tp59
sg4
(I332
I298
tp60
sg6
(lp61
I324
aI308
asg8
F0.6435011087932844
sg9
F1476531138528.35
sa(dp62
g2
(I317
I319
tp63
sg4
(I331
I298
tp64
sg6
(lp65
I324
aI308
asg8
F0.5880026035475675
sg9
F1476531138575.0688
sa(dp66
g2
(I317
I318
tp67
sg4
(I332
I298
tp68
sg6
(lp69
I324
aI308
asg8
F0.6435011087932844
sg9
F1476531138638.494
sa(dp70
g2
(I317
I318
tp71
sg4
(I332
I298
tp72
sg6
(lp73
I324
aI308
asg8
F0.6435011087932844
sg9
F1476531138692.348
sa(dp74
g2
(I317
I318
tp75
sg4
(I332
I298
tp76
sg6
(lp77
I324
aI308
asg8
F0.6435011087932844
sg9
F1476531138746.196
sa(dp78
g2
(I317
I318
tp79
sg4
(I332
I298
tp80
sg6
(lp81
I324
aI308
asg8
F0.6435011087932844
sg9
F1476531138807.338
sa(dp82
g2
(I317
I318
tp83
sg4
(I332
I298
tp84
sg6
(lp85
I324
aI308
asg8
F0.6435011087932844
sg9
F1476531138860.111
sa(dp86
g2
(I317
I318
tp87
sg4
(I332
I298
tp88
sg6
(lp89
I324
aI308
asg8
F0.6435011087932844
sg9
F1476531138918.178
sa(dp90
g2
(I317
I318
tp91
sg4
(I332
I298
tp92
sg6
(lp93
I324
aI308
asg8
F0.6435011087932844
sg9
F1476531138974.125
sa(dp94
g2
(I317
I318
tp95
sg4
(I333
I298
tp96
sg6
(lp97
I325
aI308
asg8
F0.6747409422235527
sg9
F1476531139035.63
sa(dp98
g2
(I317
I319
tp99
sg4
(I332
I298
tp100
sg6
(lp101
I324
aI308
asg8
F0.6202494859828215
sg9
F1476531139089.7168
sa(dp102
g2
(I317
I318
tp103
sg4
(I332
I298
tp104
sg6
(lp105
I324
aI308
asg8
F0.6435011087932844
sg9
F1476531139143.1948
sa(dp106
g2
(I317
I318
tp107
sg4
(I332
I298
tp108
sg6
(lp109
I324
aI308
asg8
F0.6435011087932844
sg9
F1476531139191.215
sa(dp110
g2
(I317
I318
tp111
sg4
(I332
I298
tp112
sg6
(lp113
I324
aI308
asg8
F0.6435011087932844
sg9
F1476531139235.878
sa(dp114
g2
(I317
I318
tp115
sg4
(I332
I298
tp116
sg6
(lp117
I324
aI308
asg8
F0.6435011087932844
sg9
F1476531139278.063
sa(dp118
g2
(I315
I317
tp119
sg4
(I332
I298
tp120
sg6
(lp121
I323
aI307
asg8
F0.7298996581517315
sg9
F1476531139322.202
sa(dp122
g2
(I317
I318
tp123
sg4
(I332
I298
tp124
sg6
(lp125
I324
aI308
asg8
F0.6435011087932844
sg9
F1476531139376.1138
sa(dp126
g2
(I317
I318
tp127
sg4
(I333
I298
tp128
sg6
(lp129
I325
aI308
asg8
F0.6747409422235527
sg9
F1476531139489.5042
sa(dp130
g2
(I317
I318
tp131
sg4
(I333
I298
tp132
sg6
(lp133
I325
aI308
asg8
F0.6747409422235527
sg9
F1476531139554.538
sa(dp134
g2
(I317
I318
tp135
sg4
(I333
I298
tp136
sg6
(lp137
I325
aI308
asg8
F0.6747409422235527
sg9
F1476531139620.314
sa(dp138
g2
(I317
I318
tp139
sg4
(I332
I298
tp140
sg6
(lp141
I324
aI308
asg8
F0.6435011087932844
sg9
F1476531139688.148
sa(dp142
g2
(I317
I318
tp143
sg4
(I332
I298
tp144
sg6
(lp145
I324
aI308
asg8
F0.6435011087932844
sg9
F1476531139749.428
sa(dp146
g2
(I318
I319
tp147
sg4
(I332
I298
tp148
sg6
(lp149
I325
aI308
asg8
F0.5880026035475675
sg9
F1476531139802.143
sa(dp150
g2
(I317
I319
tp151
sg4
(I332
I298
tp152
sg6
(lp153
I324
aI308
asg8
F0.6202494859828215
sg9
F1476531139850.799
sa(dp154
g2
(I317
I319
tp155
sg4
(I332
I298
tp156
sg6
(lp157
I324
aI308
asg8
F0.6202494859828215
sg9
F1476531139901.6062
sa(dp158
g2
(I317
I319
tp159
sg4
(I332
I298
tp160
sg6
(lp161
I324
aI308
asg8
F0.6202494859828215
sg9
F1476531139948.946
sa(dp162
g2
(I318
I318
tp163
sg4
(I332
I298
tp164
sg6
(lp165
I325
aI308
asg8
F0.6107259643892086
sg9
F1476531139997.345
sa(dp166
g2
(I317
I318
tp167
sg4
(I333
I298
tp168
sg6
(lp169
I325
aI308
asg8
F0.6747409422235527
sg9
F1476531140047.721
sa(dp170
g2
(I317
I318
tp171
sg4
(I333
I298
tp172
sg6
(lp173
I325
aI308
asg8
F0.6747409422235527
sg9
F1476531140110.617
sa(dp174
g2
(I317
I318
tp175
sg4
(I332
I298
tp176
sg6
(lp177
I324
aI308
asg8
F0.6435011087932844
sg9
F1476531140189.357
sa(dp178
g2
(I317
I318
tp179
sg4
(I333
I298
tp180
sg6
(lp181
I325
aI308
asg8
F0.6747409422235527
sg9
F1476531140242.9668
sa(dp182
g2
(I317
I319
tp183
sg4
(I332
I298
tp184
sg6
(lp185
I324
aI308
asg8
F0.6202494859828215
sg9
F1476531140299.779
sa(dp186
g2
(I317
I318
tp187
sg4
(I333
I298
tp188
sg6
(lp189
I325
aI308
asg8
F0.6747409422235527
sg9
F1476531140353.105
sa(dp190
g2
(I317
I319
tp191
sg4
(I332
I298
tp192
sg6
(lp193
I324
aI308
asg8
F0.6202494859828215
sg9
F1476531140404.9202
sa(dp194
g2
(I317
I318
tp195
sg4
(I333
I298
tp196
sg6
(lp197
I325
aI308
asg8
F0.6747409422235527
sg9
F1476531140461.0022
sa(dp198
g2
(I317
I318
tp199
sg4
(I333
I298
tp200
sg6
(lp201
I325
aI308
asg8
F0.6747409422235527
sg9
F1476531140534.727
sa(dp202
g2
(I317
I318
tp203
sg4
(I332
I298
tp204
sg6
(lp205
I324
aI308
asg8
F0.6435011087932844
sg9
F1476531140614.9631
sa(dp206
g2
(I317
I318
tp207
sg4
(I333
I298
tp208
sg6
(lp209
I325
aI308
asg8
F0.6747409422235527
sg9
F1476531140758.7769
sa(dp210
g2
(I317
I318
tp211
sg4
(I332
I298
tp212
sg6
(lp213
I324
aI308
asg8
F0.6435011087932844
sg9
F1476531140875.939
sa(dp214
g2
(I317
I318
tp215
sg4
(I333
I298
tp216
sg6
(lp217
I325
aI308
asg8
F0.6747409422235527
sg9
F1476531141022.516
sa(dp218
g2
(I317
I318
tp219
sg4
(I332
I298
tp220
sg6
(lp221
I324
aI308
asg8
F0.6435011087932844
sg9
F1476531141099.323
sa(dp222
g2
(I317
I319
tp223
sg4
(I333
I298
tp224
sg6
(lp225
I325
aI308
asg8
F0.6510767214444798
sg9
F1476531141176.956
sa(dp226
g2
(I316
I317
tp227
sg4
(I333
I298
tp228
sg6
(lp229
I324
aI307
asg8
F0.7298996581517315
sg9
F1476531141260.3918
sa(dp230
g2
(I317
I319
tp231
sg4
(I332
I298
tp232
sg6
(lp233
I324
aI308
asg8
F0.6202494859828215
sg9
F1476531141345.436
sa(dp234
g2
(I317
I319
tp235
sg4
(I333
I298
tp236
sg6
(lp237
I325
aI308
asg8
F0.6510767214444798
sg9
F1476531141429.5881
sa(dp238
g2
(I317
I318
tp239
sg4
(I332
I298
tp240
sg6
(lp241
I324
aI308
asg8
F0.6435011087932844
sg9
F1476531141514.2778
sa(dp242
g2
(I317
I319
tp243
sg4
(I332
I298
tp244
sg6
(lp245
I324
aI308
asg8
F0.6202494859828215
sg9
F1476531141596.383
sa(dp246
g2
(I317
I318
tp247
sg4
(I332
I298
tp248
sg6
(lp249
I324
aI308
asg8
F0.6435011087932844
sg9
F1476531141691.0142
sa(dp250
g2
(I317
I318
tp251
sg4
(I332
I298
tp252
sg6
(lp253
I324
aI308
asg8
F0.6435011087932844
sg9
F1476531141782.506
sa(dp254
g2
(I315
I317
tp255
sg4
(I332
I297
tp256
sg6
(lp257
I323
aI307
asg8
F0.7044940642422177
sg9
F1476531141850.3699
sa(dp258
g2
(I317
I319
tp259
sg4
(I333
I298
tp260
sg6
(lp261
I325
aI308
asg8
F0.6510767214444798
sg9
F1476531141929.3362
sa(dp262
g2
(I317
I319
tp263
sg4
(I332
I298
tp264
sg6
(lp265
I324
aI308
asg8
F0.6202494859828215
sg9
F1476531141991.801
sa(dp266
g2
(I317
I318
tp267
sg4
(I332
I298
tp268
sg6
(lp269
I324
aI308
asg8
F0.6435011087932844
sg9
F1476531142065.381
sa(dp270
g2
(I317
I318
tp271
sg4
(I332
I298
tp272
sg6
(lp273
I324
aI308
asg8
F0.6435011087932844
sg9
F1476531142314.905
sa(dp274
g2
(I314
I317
tp275
sg4
(I327
I300
tp276
sg6
(lp277
I320
aI308
asg8
F0.6528466311007742
sg9
F1476531142585.9539
sa(dp278
g2
(I315
I317
tp279
sg4
(I338
I298
tp280
sg6
(lp281
I326
aI307
asg8
F0.8803498697402046
sg9
F1476531142668.2651
sa(dp282
g2
(I315
I317
tp283
sg4
(I329
I298
tp284
sg6
(lp285
I322
aI307
asg8
F0.6350267353903137
sg9
F1476531142745.31
sa(dp286
g2
(I315
I317
tp287
sg4
(I330
I297
tp288
sg6
(lp289
I322
aI307
asg8
F0.6435011087932844
sg9
F1476531142837.687
sa(dp290
g2
(I317
I316
tp291
sg4
(I329
I295
tp292
sg6
(lp293
I323
aI305
asg8
F0.5191461142465229
sg9
F1476531142926.948
sa(dp294
g2
(I319
I314
tp295
sg4
(I327
I291
tp296
sg6
(lp297
I323
aI302
asg8
F0.3347368373168147
sg9
F1476531143008.2368
sa(dp298
g2
(I320
I310
tp299
sg4
(I326
I288
tp300
sg6
(lp301
I323
aI299
asg8
F0.2662520491509253
sg9
F1476531143086.0679
sa(dp302
g2
(I320
I306
tp303
sg4
(I323
I283
tp304
sg6
(lp305
I321
aI294
asg8
F0.1297025371559121
sg9
F1476531143163.738
sa(dp306
g2
(I323
I302
tp307
sg4
(I323
I279
tp308
sg6
(lp309
I323
aI290
asg8
F3.141592653589793
sg9
F1476531143253.382
sa(dp310
g2
(I324
I298
tp311
sg4
(I326
I275
tp312
sg6
(lp313
I325
aI286
asg8
F0.08673833867598511
sg9
F1476531143368.14
sa(dp314
g2
(I325
I298
tp315
sg4
(I328
I275
tp316
sg6
(lp317
I326
aI286
asg8
F0.1297025371559121
sg9
F1476531143473.447
sa(dp318
g2
(I324
I298
tp319
sg4
(I329
I276
tp320
sg6
(lp321
I326
aI287
asg8
F0.223476601140633
sg9
F1476531143576.812
sa(dp322
g2
(I325
I299
tp323
sg4
(I328
I275
tp324
sg6
(lp325
I326
aI287
asg8
F0.12435499454676144
sg9
F1476531143677.205
sa(dp326
g2
(I326
I299
tp327
sg4
(I329
I275
tp328
sg6
(lp329
I327
aI287
asg8
F0.12435499454676144
sg9
F1476531143786.735
sa(dp330
g2
(I327
I300
tp331
sg4
(I329
I276
tp332
sg6
(lp333
I328
aI288
asg8
F0.08314123188844122
sg9
F1476531143929.7212
sa(dp334
g2
(I327
I300
tp335
sg4
(I329
I276
tp336
sg6
(lp337
I328
aI288
asg8
F0.08314123188844122
sg9
F1476531144119.979
sa(dp338
g2
(I327
I300
tp339
sg4
(I329
I275
tp340
sg6
(lp341
I328
aI287
asg8
F0.07982998571223732
sg9
F1476531144239.43
sa(dp342
g2
(I326
I299
tp343
sg4
(I329
I277
tp344
sg6
(lp345
I327
aI288
asg8
F0.13552771398550073
sg9
F1476531144432.2
sa(dp346
g2
(I326
I300
tp347
sg4
(I328
I276
tp348
sg6
(lp349
I327
aI288
asg8
F0.08314123188844122
sg9
F1476531144570.627
sa(dp350
g2
(I327
I300
tp351
sg4
(I329
I277
tp352
sg6
(lp353
I328
aI288
asg8
F0.08673833867598511
sg9
F1476531144691.526
sa(dp354
g2
(I316
I299
tp355
sg4
(I329
I276
tp356
sg6
(lp357
I322
aI287
asg8
F0.5144513130590277
sg9
F1476531144777.19
sa(dp358
g2
(I326
I300
tp359
sg4
(I329
I277
tp360
sg6
(lp361
I327
aI288
asg8
F0.1297025371559121
sg9
F1476531144884.669
sa(dp362
g2
(I327
I300
tp363
sg4
(I329
I276
tp364
sg6
(lp365
I328
aI288
asg8
F0.08314123188844122
sg9
F1476531144996.0662
sa(dp366
g2
(I326
I300
tp367
sg4
(I328
I277
tp368
sg6
(lp369
I327
aI288
asg8
F0.08673833867598511
sg9
F1476531145097.703
sa(dp370
g2
(I325
I300
tp371
sg4
(I328
I277
tp372
sg6
(lp373
I326
aI288
asg8
F0.1297025371559121
sg9
F1476531145190.74
sa(dp374
g2
(I325
I300
tp375
sg4
(I330
I277
tp376
sg6
(lp377
I327
aI288
asg8
F0.2140606835638215
sg9
F1476531145267.979
sa(dp378
g2
(I326
I300
tp379
sg4
(I329
I277
tp380
sg6
(lp381
I327
aI288
asg8
F0.1297025371559121
sg9
F1476531145352.4302
sa(dp382
g2
(I326
I300
tp383
sg4
(I329
I276
tp384
sg6
(lp385
I327
aI288
asg8
F0.12435499454676144
sg9
F1476531145473.605
sa(dp386
g2
(I326
I300
tp387
sg4
(I329
I277
tp388
sg6
(lp389
I327
aI288
asg8
F0.1297025371559121
sg9
F1476531145568.284
sa(dp390
g2
(I327
I300
tp391
sg4
(I329
I277
tp392
sg6
(lp393
I328
aI288
asg8
F0.08673833867598511
sg9
F1476531145679.015
sa(dp394
g2
(I327
I300
tp395
sg4
(I330
I276
tp396
sg6
(lp397
I328
aI288
asg8
F0.12435499454676144
sg9
F1476531145777.0
sa(dp398
g2
(I327
I300
tp399
sg4
(I330
I276
tp400
sg6
(lp401
I328
aI288
asg8
F0.12435499454676144
sg9
F1476531145861.427
sa(dp402
g2
(I327
I300
tp403
sg4
(I330
I276
tp404
sg6
(lp405
I328
aI288
asg8
F0.12435499454676144
sg9
F1476531145943.4111
sa(dp406
g2
(I327
I300
tp407
sg4
(I330
I276
tp408
sg6
(lp409
I328
aI288
asg8
F0.12435499454676144
sg9
F1476531146023.709
sa(dp410
g2
(I327
I300
tp411
sg4
(I329
I277
tp412
sg6
(lp413
I328
aI288
asg8
F0.08673833867598511
sg9
F1476531146116.862
sa(dp414
g2
(I327
I300
tp415
sg4
(I329
I277
tp416
sg6
(lp417
I328
aI288
asg8
F0.08673833867598511
sg9
F1476531146225.8389
sa(dp418
g2
(I327
I300
tp419
sg4
(I329
I277
tp420
sg6
(lp421
I328
aI288
asg8
F0.08673833867598511
sg9
F1476531146319.8809
sa(dp422
g2
(I327
I300
tp423
sg4
(I330
I276
tp424
sg6
(lp425
I328
aI288
asg8
F0.12435499454676144
sg9
F1476531146408.702
sa(dp426
g2
(I327
I300
tp427
sg4
(I330
I277
tp428
sg6
(lp429
I328
aI288
asg8
F0.1297025371559121
sg9
F1476531146505.41
sa(dp430
g2
(I326
I300
tp431
sg4
(I329
I277
tp432
sg6
(lp433
I327
aI288
asg8
F0.1297025371559121
sg9
F1476531146591.852
sa(dp434
g2
(I327
I300
tp435
sg4
(I329
I277
tp436
sg6
(lp437
I328
aI288
asg8
F0.08673833867598511
sg9
F1476531146677.317
sa(dp438
g2
(I319
I299
tp439
sg4
(I329
I277
tp440
sg6
(lp441
I324
aI288
asg8
F0.4266274931268761
sg9
F1476531146972.867
sa(dp442
g2
(I321
I299
tp443
sg4
(I329
I277
tp444
sg6
(lp445
I325
aI288
asg8
F0.348771003583907
sg9
F1476531147126.521
sa(dp446
g2
(I321
I299
tp447
sg4
(I329
I277
tp448
sg6
(lp449
I325
aI288
asg8
F0.348771003583907
sg9
F1476531147224.323
sa(dp450
g2
(I320
I299
tp451
sg4
(I329
I277
tp452
sg6
(lp453
I324
aI288
asg8
F0.388318718172466
sg9
F1476531147337.037
sa(dp454
g2
(I320
I299
tp455
sg4
(I329
I277
tp456
sg6
(lp457
I324
aI288
asg8
F0.388318718172466
sg9
F1476531147428.704
sa(dp458
g2
(I320
I299
tp459
sg4
(I328
I277
tp460
sg6
(lp461
I324
aI288
asg8
F0.348771003583907
sg9
F1476531147513.865
sa(dp462
g2
(I321
I299
tp463
sg4
(I329
I277
tp464
sg6
(lp465
I325
aI288
asg8
F0.348771003583907
sg9
F1476531147622.356
sa(dp466
g2
(I320
I299
tp467
sg4
(I330
I277
tp468
sg6
(lp469
I325
aI288
asg8
F0.4266274931268761
sg9
F1476531147707.9958
sa(dp470
g2
(I322
I299
tp471
sg4
(I330
I277
tp472
sg6
(lp473
I326
aI288
asg8
F0.348771003583907
sg9
F1476531147777.8708
sa(dp474
g2
(I322
I299
tp475
sg4
(I330
I277
tp476
sg6
(lp477
I326
aI288
asg8
F0.348771003583907
sg9
F1476531147840.22
sa(dp478
g2
(I320
I299
tp479
sg4
(I326
I276
tp480
sg6
(lp481
I323
aI287
asg8
F0.2551823906208184
sg9
F1476531147917.83
sa(dp482
g2
(I319
I299
tp483
sg4
(I326
I276
tp484
sg6
(lp485
I322
aI287
asg8
F0.29544083714372
sg9
F1476531147989.004
sa(dp486
g2
(I318
I300
tp487
sg4
(I324
I276
tp488
sg6
(lp489
I321
aI288
asg8
F0.24497866312686414
sg9
F1476531148066.0552
sa(dp490
g2
(I316
I300
tp491
sg4
(I322
I276
tp492
sg6
(lp493
I319
aI288
asg8
F0.24497866312686414
sg9
F1476531148140.1538
sa(dp494
g2
(I311
I299
tp495
sg4
(I331
I303
tp496
sg6
(lp497
I321
aI301
asg8
F1.7681918866447772
sg9
F1476531148206.4941
sa(dp498
g2
(I313
I300
tp499
sg4
(I316
I275
tp500
sg6
(lp501
I314
aI287
asg8
F0.11942892601833845
sg9
F1476531148319.061
sa(dp502
g2
(I310
I300
tp503
sg4
(I313
I276
tp504
sg6
(lp505
I311
aI288
asg8
F0.12435499454676144
sg9
F1476531148379.14
sa(dp506
g2
(I309
I300
tp507
sg4
(I311
I276
tp508
sg6
(lp509
I310
aI288
asg8
F0.08314123188844122
sg9
F1476531148446.1602
sa(dp510
g2
(I308
I300
tp511
sg4
(I310
I276
tp512
sg6
(lp513
I309
aI288
asg8
F0.08314123188844122
sg9
F1476531148516.412
sa(dp514
g2
(I307
I300
tp515
sg4
(I310
I276
tp516
sg6
(lp517
I308
aI288
asg8
F0.12435499454676144
sg9
F1476531148587.42
sa(dp518
g2
(I307
I300
tp519
sg4
(I310
I276
tp520
sg6
(lp521
I308
aI288
asg8
F0.12435499454676144
sg9
F1476531148662.559
sa(dp522
g2
(I305
I300
tp523
sg4
(I309
I275
tp524
sg6
(lp525
I307
aI287
asg8
F0.1586552621864014
sg9
F1476531148750.308
sa(dp526
g2
(I304
I300
tp527
sg4
(I307
I275
tp528
sg6
(lp529
I305
aI287
asg8
F0.11942892601833845
sg9
F1476531148841.743
sa(dp530
g2
(I303
I300
tp531
sg4
(I304
I275
tp532
sg6
(lp533
I303
aI287
asg8
F0.039978687123290044
sg9
F1476531148933.6182
sa(dp534
g2
(I300
I300
tp535
sg4
(I303
I275
tp536
sg6
(lp537
I301
aI287
asg8
F0.11942892601833845
sg9
F1476531149044.513
sa(dp538
g2
(I300
I300
tp539
sg4
(I303
I276
tp540
sg6
(lp541
I301
aI288
asg8
F0.12435499454676144
sg9
F1476531149155.961
sa(dp542
g2
(I299
I300
tp543
sg4
(I302
I276
tp544
sg6
(lp545
I300
aI288
asg8
F0.12435499454676144
sg9
F1476531149261.099
sa(dp546
g2
(I298
I300
tp547
sg4
(I300
I275
tp548
sg6
(lp549
I299
aI287
asg8
F0.07982998571223732
sg9
F1476531149379.7458
sa(dp550
g2
(I298
I300
tp551
sg4
(I300
I276
tp552
sg6
(lp553
I299
aI288
asg8
F0.08314123188844122
sg9
F1476531149535.825
sa(dp554
g2
(I298
I300
tp555
sg4
(I300
I275
tp556
sg6
(lp557
I299
aI287
asg8
F0.07982998571223732
sg9
F1476531149621.9229
sa(dp558
g2
(I298
I300
tp559
sg4
(I300
I275
tp560
sg6
(lp561
I299
aI287
asg8
F0.07982998571223732
sg9
F1476531149704.71
sa(dp562
g2
(I298
I300
tp563
sg4
(I302
I276
tp564
sg6
(lp565
I300
aI288
asg8
F0.16514867741462683
sg9
F1476531149792.5278
sa(dp566
g2
(I299
I300
tp567
sg4
(I303
I275
tp568
sg6
(lp569
I301
aI287
asg8
F0.1586552621864014
sg9
F1476531149864.747
sa(dp570
g2
(I300
I300
tp571
sg4
(I304
I275
tp572
sg6
(lp573
I302
aI287
asg8
F0.1586552621864014
sg9
F1476531149936.348
sa(dp574
g2
(I303
I300
tp575
sg4
(I304
I275
tp576
sg6
(lp577
I303
aI287
asg8
F0.039978687123290044
sg9
F1476531149997.15
sa(dp578
g2
(I304
I300
tp579
sg4
(I305
I275
tp580
sg6
(lp581
I304
aI287
asg8
F0.039978687123290044
sg9
F1476531150062.746
sa(dp582
g2
(I304
I300
tp583
sg4
(I308
I276
tp584
sg6
(lp585
I306
aI288
asg8
F0.16514867741462683
sg9
F1476531150210.0378
sa(dp586
g2
(I304
I299
tp587
sg4
(I309
I275
tp588
sg6
(lp589
I306
aI287
asg8
F0.2053953891897674
sg9
F1476531150335.378
sa(dp590
g2
(I303
I299
tp591
sg4
(I305
I274
tp592
sg6
(lp593
I304
aI286
asg8
F0.07982998571223732
sg9
F1476531150462.6218
sa(dp594
g2
(I302
I300
tp595
sg4
(I303
I276
tp596
sg6
(lp597
I302
aI288
asg8
F0.04164257909858842
sg9
F1476531150601.698
sa(dp598
g2
(I301
I299
tp599
sg4
(I306
I275
tp600
sg6
(lp601
I303
aI287
asg8
F0.2053953891897674
sg9
F1476531150765.819
sa(dp602
g2
(I301
I299
tp603
sg4
(I308
I274
tp604
sg6
(lp605
I304
aI286
asg8
F0.2730087030867106
sg9
F1476531150862.603
sa(dp606
g2
(I306
I303
tp607
sg4
(I307
I278
tp608
sg6
(lp609
I306
aI290
asg8
F0.039978687123290044
sg9
F1476531150981.697
sa(dp610
g2
(I309
I304
tp611
sg4
(I308
I280
tp612
sg6
(lp613
I308
aI292
asg8
F6.241542728080998
sg9
F1476531151124.622
sa(dp614
g2
(I309
I302
tp615
sg4
(I314
I277
tp616
sg6
(lp617
I311
aI289
asg8
F0.19739555984988078
sg9
F1476531151276.203
sa(dp618
g2
(I311
I300
tp619
sg4
(I319
I275
tp620
sg6
(lp621
I315
aI287
asg8
F0.3097029445424562
sg9
F1476531151407.387
sa(dp622
g2
(I316
I303
tp623
sg4
(I318
I279
tp624
sg6
(lp625
I317
aI291
asg8
F0.08314123188844122
sg9
F1476531151530.4192
sa(dp626
g2
(I319
I303
tp627
sg4
(I321
I278
tp628
sg6
(lp629
I320
aI290
asg8
F0.07982998571223732
sg9
F1476531151673.1921
sa(dp630
g2
(I319
I301
tp631
sg4
(I327
I276
tp632
sg6
(lp633
I323
aI288
asg8
F0.3097029445424562
sg9
F1476531151801.073
sa(dp634
g2
(I322
I302
tp635
sg4
(I327
I278
tp636
sg6
(lp637
I324
aI290
asg8
F0.2053953891897674
sg9
F1476531151926.2942
sa(dp638
g2
(I326
I305
tp639
sg4
(I326
I280
tp640
sg6
(lp641
I326
aI292
asg8
F3.141592653589793
sg9
F1476531152064.342
sa(dp642
g2
(I326
I303
tp643
sg4
(I334
I279
tp644
sg6
(lp645
I330
aI291
asg8
F0.3217505543966422
sg9
F1476531152173.337
sa(dp646
g2
(I330
I302
tp647
sg4
(I340
I277
tp648
sg6
(lp649
I335
aI289
asg8
F0.3805063771123649
sg9
F1476531152258.934
sa(dp650
g2
(I332
I303
tp651
sg4
(I341
I279
tp652
sg6
(lp653
I336
aI291
asg8
F0.35877067027057225
sg9
F1476531152369.629
sa(dp654
g2
(I335
I307
tp655
sg4
(I339
I283
tp656
sg6
(lp657
I337
aI295
asg8
F0.16514867741462683
sg9
F1476531152493.572
sa(dp658
g2
(I336
I306
tp659
sg4
(I344
I282
tp660
sg6
(lp661
I340
aI294
asg8
F0.3217505543966422
sg9
F1476531152561.125
sa(dp662
g2
(I335
I304
tp663
sg4
(I346
I281
tp664
sg6
(lp665
I340
aI292
asg8
F0.44610554894340365
sg9
F1476531152632.701
sa(dp666
g2
(I336
I304
tp667
sg4
(I347
I281
tp668
sg6
(lp669
I341
aI292
asg8
F0.44610554894340365
sg9
F1476531152698.4219
sa(dp670
g2
(I339
I305
tp671
sg4
(I348
I282
tp672
sg6
(lp673
I343
aI293
asg8
F0.372987721800061
sg9
F1476531152801.94
sa(dp674
g2
(I343
I308
tp675
sg4
(I347
I284
tp676
sg6
(lp677
I345
aI296
asg8
F0.16514867741462683
sg9
F1476531152897.336
sa(dp678
g2
(I343
I309
tp679
sg4
(I347
I285
tp680
sg6
(lp681
I345
aI297
asg8
F0.16514867741462683
sg9
F1476531152957.0972
sa(dp682
g2
(I344
I310
tp683
sg4
(I348
I286
tp684
sg6
(lp685
I346
aI298
asg8
F0.16514867741462683
sg9
F1476531153029.263
sa(dp686
g2
(I345
I309
tp687
sg4
(I351
I284
tp688
sg6
(lp689
I348
aI296
asg8
F0.23554498072086333
sg9
F1476531153100.2942
sa(dp690
g2
(I347
I308
tp691
sg4
(I354
I283
tp692
sg6
(lp693
I350
aI295
asg8
F0.2730087030867106
sg9
F1476531153183.594
sa(dp694
g2
(I348
I307
tp695
sg4
(I356
I282
tp696
sg6
(lp697
I352
aI294
asg8
F0.3097029445424562
sg9
F1476531153283.4119
sa(dp698
g2
(I350
I308
tp699
sg4
(I357
I282
tp700
sg6
(lp701
I353
aI295
asg8
F0.26299473168091947
sg9
F1476531153403.695
sa(dp702
g2
(I353
I309
tp703
sg4
(I355
I284
tp704
sg6
(lp705
I354
aI296
asg8
F0.07982998571223732
sg9
F1476531153531.281
sa(dp706
g2
(I356
I311
tp707
sg4
(I355
I286
tp708
sg6
(lp709
I355
aI298
asg8
F6.243206620056296
sg9
F1476531153643.817
sa(dp710
g2
(I357
I307
tp711
sg4
(I360
I282
tp712
sg6
(lp713
I358
aI294
asg8
F0.11942892601833845
sg9
F1476531153748.2559
sa(dp714
g2
(I358
I306
tp715
sg4
(I361
I281
tp716
sg6
(lp717
I359
aI293
asg8
F0.11942892601833845
sg9
F1476531153866.173
sa(dp718
g2
(I362
I309
tp719
sg4
(I356
I285
tp720
sg6
(lp721
I359
aI297
asg8
F6.038206644052722
sg9
F1476531154010.724
sa(dp722
g2
(I362
I309
tp723
sg4
(I357
I285
tp724
sg6
(lp725
I359
aI297
asg8
F6.0777899179898185
sg9
F1476531154114.073
sa(dp726
g2
(I364
I308
tp727
sg4
(I360
I283
tp728
sg6
(lp729
I362
aI295
asg8
F6.124530044993185
sg9
F1476531154205.6028
sa(dp730
g2
(I364
I304
tp731
sg4
(I368
I279
tp732
sg6
(lp733
I366
aI291
asg8
F0.1586552621864014
sg9
F1476531154252.097
sa(dp734
g2
(I369
I305
tp735
sg4
(I368
I280
tp736
sg6
(lp737
I368
aI292
asg8
F6.243206620056296
sg9
F1476531154318.472
sa(dp738
g2
(I371
I308
tp739
sg4
(I369
I283
tp740
sg6
(lp741
I370
aI295
asg8
F6.203355321467349
sg9
F1476531154389.311
sa(dp742
g2
(I371
I307
tp743
sg4
(I371
I282
tp744
sg6
(lp745
I371
aI294
asg8
F3.141592653589793
sg9
F1476531154525.736
sa(dp746
g2
(I371
I304
tp747
sg4
(I378
I279
tp748
sg6
(lp749
I374
aI291
asg8
F0.2730087030867106
sg9
F1476531154692.473
sa(dp750
g2
(I374
I305
tp751
sg4
(I381
I280
tp752
sg6
(lp753
I377
aI292
asg8
F0.2730087030867106
sg9
F1476531154824.2349
sa(dp754
g2
(I377
I309
tp755
sg4
(I380
I284
tp756
sg6
(lp757
I378
aI296
asg8
F0.11942892601833845
sg9
F1476531154937.317
sa(dp758
g2
(I375
I307
tp759
sg4
(I384
I283
tp760
sg6
(lp761
I379
aI295
asg8
F0.35877067027057225
sg9
F1476531155105.577
sa(dp762
g2
(I377
I305
tp763
sg4
(I389
I281
tp764
sg6
(lp765
I383
aI293
asg8
F0.4636476090008061
sg9
F1476531155197.372
sa(dp766
g2
(I382
I309
tp767
sg4
(I389
I284
tp768
sg6
(lp769
I385
aI296
asg8
F0.2730087030867106
sg9
F1476531155297.311
sa(dp770
g2
(I384
I311
tp771
sg4
(I391
I287
tp772
sg6
(lp773
I387
aI299
asg8
F0.28379410920832787
sg9
F1476531155381.4312
sa(dp774
g2
(I386
I310
tp775
sg4
(I393
I286
tp776
sg6
(lp777
I389
aI298
asg8
F0.28379410920832787
sg9
F1476531155548.1191
sa(dp778
g2
(I385
I307
tp779
sg4
(I397
I282
tp780
sg6
(lp781
I391
aI294
asg8
F0.44751997515716985
sg9
F1476531155633.2632
sa(dp782
g2
(I388
I309
tp783
sg4
(I392
I284
tp784
sg6
(lp785
I390
aI296
asg8
F0.1586552621864014
sg9
F1476531155784.089
sa(dp786
g2
(I389
I312
tp787
sg4
(I390
I286
tp788
sg6
(lp789
I389
aI299
asg8
F0.03844259002118799
sg9
F1476531155946.093
sa(dp790
g2
(I391
I309
tp791
sg4
(I390
I283
tp792
sg6
(lp793
I390
aI296
asg8
F6.244742717158398
sg9
F1476531156063.7
sa(dp794
g2
(I390
I306
tp795
sg4
(I392
I280
tp796
sg6
(lp797
I391
aI293
asg8
F0.07677189126977804
sg9
F1476531156183.891
sa(dp798
g2
(I390
I308
tp799
sg4
(I388
I283
tp800
sg6
(lp801
I389
aI295
asg8
F6.203355321467349
sg9
F1476531156271.6301
sa(dp802
g2
(I392
I309
tp803
sg4
(I386
I285
tp804
sg6
(lp805
I389
aI297
asg8
F6.038206644052722
sg9
F1476531156377.279
sa(dp806
g2
(I394
I309
tp807
sg4
(I387
I285
tp808
sg6
(lp809
I390
aI297
asg8
F5.999391197971258
sg9
F1476531156506.713
sa(dp810
g2
(I393
I304
tp811
sg4
(I391
I281
tp812
sg6
(lp813
I392
aI292
asg8
F6.196446968503601
sg9
F1476531156588.2969
sa(dp814
g2
(I393
I304
tp815
sg4
(I393
I279
tp816
sg6
(lp817
I393
aI291
asg8
F3.141592653589793
sg9
F1476531156717.969
sa(dp818
g2
(I397
I307
tp819
sg4
(I391
I282
tp820
sg6
(lp821
I394
aI294
asg8
F6.047640326458723
sg9
F1476531156902.117
sa(dp822
g2
(I400
I310
tp823
sg4
(I391
I286
tp824
sg6
(lp825
I395
aI298
asg8
F5.924414636909014
sg9
F1476531157017.146
sa(dp826
g2
(I402
I307
tp827
sg4
(I399
I283
tp828
sg6
(lp829
I400
aI295
asg8
F6.1588303126328245
sg9
F1476531157135.603
sa(dp830
g2
(I402
I303
tp831
sg4
(I402
I278
tp832
sg6
(lp833
I402
aI290
asg8
F3.141592653589793
sg9
F1476531157264.802
sa(dp834
g2
(I404
I304
tp835
sg4
(I402
I280
tp836
sg6
(lp837
I403
aI292
asg8
F6.200044075291145
sg9
F1476531157382.2031
sa(dp838
g2
(I409
I308
tp839
sg4
(I401
I283
tp840
sg6
(lp841
I405
aI295
asg8
F5.97348236263713
sg9
F1476531157522.998
sa(dp842
g2
(I409
I307
tp843
sg4
(I405
I282
tp844
sg6
(lp845
I407
aI294
asg8
F6.124530044993185
sg9
F1476531157672.24
sa(dp846
g2
(I408
I303
tp847
sg4
(I405
I280
tp848
sg6
(lp849
I406
aI291
asg8
F6.1534827700236745
sg9
F1476531157785.5479
sa(dp850
g2
(I413
I305
tp851
sg4
(I409
I281
tp852
sg6
(lp853
I411
aI293
asg8
F6.118036629764959
sg9
F1476531157904.752
sa(dp854
g2
(I414
I308
tp855
sg4
(I407
I283
tp856
sg6
(lp857
I410
aI295
asg8
F6.010176604092876
sg9
F1476531157974.92
sa(dp858
g2
(I415
I307
tp859
sg4
(I405
I284
tp860
sg6
(lp861
I410
aI295
asg8
F5.873057966638095
sg9
F1476531158167.78
sa(dp862
g2
(I412
I303
tp863
sg4
(I405
I281
tp864
sg6
(lp865
I408
aI292
asg8
F5.97513252615581
sg9
F1476531158245.1821
sa(dp866
g2
(I413
I302
tp867
sg4
(I403
I282
tp868
sg6
(lp869
I408
aI292
asg8
F5.81953769817878
sg9
F1476531158351.6582
sa(dp870
g2
(I417
I301
tp871
sg4
(I405
I281
tp872
sg6
(lp873
I411
aI291
asg8
F5.742765806909002
sg9
F1476531158417.83
sa(dp874
g2
(I418
I301
tp875
sg4
(I407
I281
tp876
sg6
(lp877
I412
aI291
asg8
F5.780342096251726
sg9
F1476531158496.743
sa(dp878
g2
(I418
I300
tp879
sg4
(I407
I279
tp880
sg6
(lp881
I412
aI289
asg8
F5.80067201215711
sg9
F1476531158670.407
sa(dp882
g2
(I420
I297
tp883
sg4
(I410
I278
tp884
sg6
(lp885
I415
aI287
asg8
F5.798707378142563
sg9
F1476531158935.008
sa(dp886
g2
(I423
I298
tp887
sg4
(I410
I278
tp888
sg6
(lp889
I416
aI288
asg8
F5.706810086588402
sg9
F1476531159099.438
sa(dp890
g2
(I423
I295
tp891
sg4
(I413
I276
tp892
sg6
(lp893
I418
aI285
asg8
F5.798707378142563
sg9
F1476531159190.501
sa(dp894
g2
(I425
I296
tp895
sg4
(I410
I276
tp896
sg6
(lp897
I417
aI286
asg8
F5.639684198386302
sg9
F1476531159377.759
sa(dp898
g2
(I425
I296
tp899
sg4
(I410
I277
tp900
sg6
(lp901
I417
aI286
asg8
F5.614895888349002
sg9
F1476531159535.374
sa(dp902
g2
(I423
I293
tp903
sg4
(I413
I274
tp904
sg6
(lp905
I418
aI283
asg8
F5.798707378142563
sg9
F1476531159651.196
sa(dp906
g2
(I423
I290
tp907
sg4
(I418
I268
tp908
sg6
(lp909
I420
aI279
asg8
F6.059708706038953
sg9
F1476531159791.8242
sa(dp910
g2
(I431
I290
tp911
sg4
(I419
I267
tp912
sg6
(lp913
I425
aI278
asg8
F5.802298026984251
sg9
F1476531159893.307
sa(dp914
g2
(I434
I289
tp915
sg4
(I423
I266
tp916
sg6
(lp917
I428
aI277
asg8
F5.837079758236182
sg9
F1476531159975.942
sa(dp918
g2
(I434
I288
tp919
sg4
(I425
I264
tp920
sg6
(lp921
I429
aI276
asg8
F5.924414636909014
sg9
F1476531160149.502
sa(dp922
g2
(I434
I284
tp923
sg4
(I428
I261
tp924
sg6
(lp925
I431
aI272
asg8
F6.028002916558767
sg9
F1476531160236.0251
sa(dp926
g2
(I438
I285
tp927
sg4
(I428
I262
tp928
sg6
(lp929
I433
aI273
asg8
F5.873057966638095
sg9
F1476531160363.899
sa(dp930
g2
(I440
I285
tp931
sg4
(I432
I263
tp932
sg6
(lp933
I436
aI274
asg8
F5.93441430359568
sg9
F1476531160543.021
sa(dp934
g2
(I440
I281
tp935
sg4
(I434
I259
tp936
sg6
(lp937
I437
aI270
asg8
F6.0169332580286605
sg9
F1476531160658.0132
sa(dp938
g2
(I441
I279
tp939
sg4
(I436
I256
tp940
sg6
(lp941
I438
aI267
asg8
F6.069124623615765
sg9
F1476531160799.1372
sa(dp942
g2
(I444
I279
tp943
sg4
(I435
I258
tp944
sg6
(lp945
I439
aI268
asg8
F5.878293520894503
sg9
F1476531160900.599
sa(dp946
g2
(I445
I276
tp947
sg4
(I439
I256
tp948
sg6
(lp949
I442
aI266
asg8
F5.9917285127017195
sg9
F1476531160959.692
sa(dp950
g2
(I446
I221
tp951
sg4
(I434
I238
tp952
sg6
(lp953
I440
aI229
asg8
F3.7562556055119587
sg9
F1476531165460.86
sa(dp954
g2
(I445
I219
tp955
sg4
(I434
I237
tp956
sg6
(lp957
I439
aI228
asg8
F3.690142056040321
sg9
F1476531165888.167
sa(dp958
g2
(I444
I217
tp959
sg4
(I432
I235
tp960
sg6
(lp961
I438
aI226
asg8
F3.7295952571373605
sg9
F1476531165957.7688
sa(dp962
g2
(I441
I203
tp963
sg4
(I426
I223
tp964
sg6
(lp965
I433
aI213
asg8
F3.7850937623830774
sg9
F1476531166919.675
sa(dp966
g2
(I439
I200
tp967
sg4
(I425
I223
tp968
sg6
(lp969
I432
aI211
asg8
F3.6883814944790405
sg9
F1476531167053.165
sa(dp970
g2
(I434
I199
tp971
sg4
(I423
I223
tp972
sg6
(lp973
I428
aI211
asg8
F3.5713549326864817
sg9
F1476531167157.417
sa(dp974
g2
(I434
I196
tp975
sg4
(I422
I220
tp976
sg6
(lp977
I428
aI208
asg8
F3.6052402625905993
sg9
F1476531167325.9448
sa(dp978
g2
(I433
I193
tp979
sg4
(I421
I216
tp980
sg6
(lp981
I427
aI204
asg8
F3.622479933785129
sg9
F1476531167456.329
sa(dp982
g2
(I429
I193
tp983
sg4
(I419
I217
tp984
sg6
(lp985
I424
aI205
asg8
F3.536383773289555
sg9
F1476531167583.8708
sa(dp986
g2
(I427
I191
tp987
sg4
(I419
I217
tp988
sg6
(lp989
I423
aI204
asg8
F3.4400915851759724
sg9
F1476531167724.019
sa(dp990
g2
(I430
I188
tp991
sg4
(I421
I215
tp992
sg6
(lp993
I425
aI201
asg8
F3.4633432079864352
sg9
F1476531167847.548
sa(dp994
g2
(I429
I188
tp995
sg4
(I423
I215
tp996
sg6
(lp997
I426
aI201
asg8
F3.360261599463735
sg9
F1476531167984.493
sa(dp998
g2
(I428
I190
tp999
sg4
(I424
I218
tp1000
sg6
(lp1001
I426
aI204
asg8
F3.283489708193957
sg9
F1476531168110.2249
sa(dp1002
g2
(I429
I190
tp1003
sg4
(I427
I218
tp1004
sg6
(lp1005
I428
aI204
asg8
F3.2129001183750834
sg9
F1476531168269.009
sa(dp1006
g2
(I428
I187
tp1007
sg4
(I427
I214
tp1008
sg6
(lp1009
I427
aI200
asg8
F3.178612769463723
sg9
F1476531168370.467
sa(dp1010
g2
(I424
I187
tp1011
sg4
(I426
I216
tp1012
sg6
(lp1013
I425
aI201
asg8
F3.0727361642887487
sg9
F1476531168424.1619
sa(dp1014
g2
(I422
I189
tp1015
sg4
(I424
I218
tp1016
sg6
(lp1017
I423
aI203
asg8
F3.0727361642887487
sg9
F1476531168583.921
sa(dp1018
g2
(I419
I189
tp1019
sg4
(I421
I218
tp1020
sg6
(lp1021
I420
aI203
asg8
F3.0727361642887487
sg9
F1476531168745.934
sa(dp1022
g2
(I417
I186
tp1023
sg4
(I419
I214
tp1024
sg6
(lp1025
I418
aI200
asg8
F3.070285188804503
sg9
F1476531168862.731
sa(dp1026
g2
(I415
I188
tp1027
sg4
(I417
I217
tp1028
sg6
(lp1029
I416
aI202
asg8
F3.0727361642887487
sg9
F1476531168963.671
sa(dp1030
g2
(I412
I190
tp1031
sg4
(I414
I219
tp1032
sg6
(lp1033
I413
aI204
asg8
F3.0727361642887487
sg9
F1476531169134.4011
sa(dp1034
g2
(I415
I189
tp1035
sg4
(I412
I217
tp1036
sg6
(lp1037
I413
aI203
asg8
F3.2483283262389286
sg9
F1476531169230.447
sa(dp1038
g2
(I420
I186
tp1039
sg4
(I413
I213
tp1040
sg6
(lp1041
I416
aI199
asg8
F3.3952667497284357
sg9
F1476531169393.034
sa(dp1042
g2
(I421
I188
tp1043
sg4
(I416
I215
tp1044
sg6
(lp1045
I418
aI201
asg8
F3.324703470852277
sg9
F1476531169503.9612
sa(dp1046
g2
(I419
I190
tp1047
sg4
(I413
I217
tp1048
sg6
(lp1049
I416
aI203
asg8
F3.360261599463735
sg9
F1476531169642.421
sa(dp1050
g2
(I422
I189
tp1051
sg4
(I411
I214
tp1052
sg6
(lp1053
I416
aI201
asg8
F3.5560995281745793
sg9
F1476531169800.8152
sa(dp1054
g2
(I421
I188
tp1055
sg4
(I408
I211
tp1056
sg6
(lp1057
I414
aI199
asg8
F3.656043966648821
sg9
F1476531169901.006
sa(dp1058
g2
(I416
I190
tp1059
sg4
(I406
I212
tp1060
sg6
(lp1061
I411
aI201
asg8
F3.568220146716669
sg9
F1476531170058.311
sa(dp1062
g2
(I416
I190
tp1063
sg4
(I402
I211
tp1064
sg6
(lp1065
I409
aI200
asg8
F3.7295952571373605
sg9
F1476531170184.145
sa(dp1066
g2
(I419
I187
tp1067
sg4
(I403
I208
tp1068
sg6
(lp1069
I411
aI197
asg8
F3.792669375034273
sg9
F1476531170316.011
sa(dp1070
g2
(I419
I187
tp1071
sg4
(I402
I207
tp1072
sg6
(lp1073
I410
aI197
asg8
F3.846086717832011
sg9
F1476531170441.803
sa(dp1074
g2
(I414
I188
tp1075
sg4
(I400
I209
tp1076
sg6
(lp1077
I407
aI198
asg8
F3.7295952571373605
sg9
F1476531170586.577
sa(dp1078
g2
(I414
I181
tp1079
sg4
(I396
I201
tp1080
sg6
(lp1081
I405
aI191
asg8
F3.8744077553763
sg9
F1476531170855.0771
sa(dp1082
g2
(I412
I180
tp1083
sg4
(I395
I201
tp1084
sg6
(lp1085
I403
aI190
asg8
F3.8221138782570074
sg9
F1476531171003.1062
sa(dp1086
g2
(I409
I181
tp1087
sg4
(I397
I205
tp1088
sg6
(lp1089
I403
aI193
asg8
F3.6052402625905993
sg9
F1476531171142.385
sa(dp1090
g2
(I411
I181
tp1091
sg4
(I398
I204
tp1092
sg6
(lp1093
I404
aI192
asg8
F3.656043966648821
sg9
F1476531171235.2031
sa(dp1094
g2
(I411
I179
tp1095
sg4
(I398
I202
tp1096
sg6
(lp1097
I404
aI190
asg8
F3.656043966648821
sg9
F1476531171384.5962
sa(dp1098
g2
(I407
I179
tp1099
sg4
(I396
I203
tp1100
sg6
(lp1101
I401
aI191
asg8
F3.5713549326864817
sg9
F1476531171535.4568
sa(dp1102
g2
(I401
I177
tp1103
sg4
(I389
I201
tp1104
sg6
(lp1105
I395
aI189
asg8
F3.6052402625905993
sg9
F1476531171620.835
sa(dp1106
g2
(I397
I172
tp1107
sg4
(I387
I196
tp1108
sg6
(lp1109
I392
aI184
asg8
F3.536383773289555
sg9
F1476531171808.46
sa(dp1110
g2
(I398
I168
tp1111
sg4
(I383
I191
tp1112
sg6
(lp1113
I390
aI179
asg8
F3.719494590552039
sg9
F1476531171921.164
sa(dp1114
g2
(I395
I169
tp1115
sg4
(I383
I192
tp1116
sg6
(lp1117
I389
aI180
asg8
F3.622479933785129
sg9
F1476531172066.9128
sa(dp1118
g2
(I394
I170
tp1119
sg4
(I383
I194
tp1120
sg6
(lp1121
I388
aI182
asg8
F3.5713549326864817
sg9
F1476531172169.46
sa(dp1122
g2
(I393
I166
tp1123
sg4
(I384
I191
tp1124
sg6
(lp1125
I388
aI178
asg8
F3.487148234171505
sg9
F1476531172320.3672
sa(dp1126
g2
(I388
I163
tp1127
sg4
(I380
I188
tp1128
sg6
(lp1129
I384
aI175
asg8
F3.4512955981322495
sg9
F1476531172466.255
sa(dp1130
g2
(I383
I162
tp1131
sg4
(I377
I189
tp1132
sg6
(lp1133
I380
aI175
asg8
F3.360261599463735
sg9
F1476531172596.701
sa(dp1134
g2
(I380
I161
tp1135
sg4
(I375
I188
tp1136
sg6
(lp1137
I377
aI174
asg8
F3.324703470852277
sg9
F1476531172697.246
sa(dp1138
g2
(I379
I158
tp1139
sg4
(I373
I184
tp1140
sg6
(lp1141
I376
aI171
asg8
F3.368391501643679
sg9
F1476531172853.628
sa(dp1142
g2
(I378
I157
tp1143
sg4
(I371
I184
tp1144
sg6
(lp1145
I374
aI170
asg8
F3.3952667497284357
sg9
F1476531172982.613
sa(dp1146
g2
(I374
I159
tp1147
sg4
(I370
I187
tp1148
sg6
(lp1149
I372
aI173
asg8
F3.283489708193957
sg9
F1476531173121.085
sa(dp1150
g2
(I371
I156
tp1151
sg4
(I368
I183
tp1152
sg6
(lp1153
I369
aI169
asg8
F3.2522498747636885
sg9
F1476531173263.948
sa(dp1154
g2
(I366
I154
tp1155
sg4
(I364
I181
tp1156
sg6
(lp1157
I365
aI167
asg8
F3.2155316912477336
sg9
F1476531173385.7651
sa(dp1158
g2
(I364
I155
tp1159
sg4
(I360
I183
tp1160
sg6
(lp1161
I362
aI169
asg8
F3.283489708193957
sg9
F1476531173503.176
sa(dp1162
g2
(I359
I154
tp1163
sg4
(I356
I182
tp1164
sg6
(lp1165
I357
aI168
asg8
F3.2483283262389286
sg9
F1476531173600.096
sa(dp1166
g2
(I358
I152
tp1167
sg4
(I357
I179
tp1168
sg6
(lp1169
I357
aI165
asg8
F3.178612769463723
sg9
F1476531173688.387
sa(dp1170
g2
(I358
I151
tp1171
sg4
(I355
I178
tp1172
sg6
(lp1173
I356
aI164
asg8
F3.2522498747636885
sg9
F1476531173770.695
sa(dp1174
g2
(I357
I151
tp1175
sg4
(I356
I180
tp1176
sg6
(lp1177
I356
aI165
asg8
F3.176061754589301
sg9
F1476531173951.001
sa(dp1178
g2
(I353
I153
tp1179
sg4
(I350
I180
tp1180
sg6
(lp1181
I351
aI166
asg8
F3.2522498747636885
sg9
F1476531174049.5552
sa(dp1182
g2
(I348
I151
tp1183
sg4
(I349
I179
tp1184
sg6
(lp1185
I348
aI165
asg8
F3.1058935409104693
sg9
F1476531174198.996
sa(dp1186
g2
(I344
I149
tp1187
sg4
(I345
I176
tp1188
sg6
(lp1189
I344
aI162
asg8
F3.104572537715863
sg9
F1476531174633.273
sa(dp1190
g2
(I342
I151
tp1191
sg4
(I342
I179
tp1192
sg6
(lp1193
I342
aI165
asg8
F3.141592653589793
sg9
F1476531174939.041
sa(dp1194
g2
(I329
I151
tp1195
sg4
(I332
I178
tp1196
sg6
(lp1197
I330
aI164
asg8
F3.0309354324158977
sg9
F1476531175039.519
sa(dp1198
g2
(I326
I148
tp1199
sg4
(I329
I176
tp1200
sg6
(lp1201
I327
aI162
asg8
F3.0348569809406576
sg9
F1476531175180.306
sa(dp1202
g2
(I323
I148
tp1203
sg4
(I327
I176
tp1204
sg6
(lp1205
I325
aI162
asg8
F2.999695598985629
sg9
F1476531175316.719
sa(dp1206
g2
(I320
I151
tp1207
sg4
(I323
I179
tp1208
sg6
(lp1209
I321
aI165
asg8
F3.0348569809406576
sg9
F1476531175440.5378
sa(dp1210
g2
(I317
I151
tp1211
sg4
(I323
I179
tp1212
sg6
(lp1213
I320
aI165
asg8
F2.9304993203670464
sg9
F1476531175592.811
sa(dp1214
g2
(I312
I150
tp1215
sg4
(I318
I176
tp1216
sg6
(lp1217
I315
aI163
asg8
F2.9147938055359073
sg9
F1476531175705.437
sa(dp1218
g2
(I312
I151
tp1219
sg4
(I316
I178
tp1220
sg6
(lp1221
I314
aI164
asg8
F2.994514298201391
sg9
F1476531175820.566
sa(dp1222
g2
(I309
I152
tp1223
sg4
(I312
I180
tp1224
sg6
(lp1225
I310
aI166
asg8
F3.0348569809406576
sg9
F1476531176000.44
sa(dp1226
g2
(I309
I151
tp1227
sg4
(I309
I178
tp1228
sg6
(lp1229
I309
aI164
asg8
F3.141592653589793
sg9
F1476531176095.247
sa(dp1230
g2
(I309
I150
tp1231
sg4
(I306
I177
tp1232
sg6
(lp1233
I307
aI163
asg8
F3.2522498747636885
sg9
F1476531176256.9038
sa(dp1234
g2
(I309
I152
tp1235
sg4
(I308
I181
tp1236
sg6
(lp1237
I308
aI166
asg8
F3.176061754589301
sg9
F1476531176378.0178
sa(dp1238
g2
(I311
I153
tp1239
sg4
(I308
I181
tp1240
sg6
(lp1241
I309
aI167
asg8
F3.2483283262389286
sg9
F1476531176506.737
sa(dp1242
g2
(I315
I152
tp1243
sg4
(I306
I178
tp1244
sg6
(lp1245
I310
aI165
asg8
F3.4748369547014657
sg9
F1476531176669.77
sa(dp1246
g2
(I317
I155
tp1247
sg4
(I308
I179
tp1248
sg6
(lp1249
I312
aI167
asg8
F3.5003633238603653
sg9
F1476531176800.415
sa(dp1250
g2
(I315
I157
tp1251
sg4
(I307
I180
tp1252
sg6
(lp1253
I311
aI168
asg8
F3.4763294909066076
sg9
F1476531176930.9622
sa(dp1254
g2
(I317
I156
tp1255
sg4
(I302
I176
tp1256
sg6
(lp1257
I309
aI166
asg8
F3.7850937623830774
sg9
F1476531177077.977
sa(dp1258
g2
(I315
I152
tp1259
sg4
(I299
I170
tp1260
sg6
(lp1261
I307
aI161
asg8
F3.8682349942715186
sg9
F1476531177591.125
sa(dp1262
g2
(I314
I150
tp1263
sg4
(I296
I167
tp1264
sg6
(lp1265
I305
aI158
asg8
F3.9555544748260014
sg9
F1476531177709.718
sa(dp1266
g2
(I309
I142
tp1267
sg4
(I295
I162
tp1268
sg6
(lp1269
I302
aI152
asg8
F3.7523186179790016
sg9
F1476531178119.042
sa(dp1270
g2
(I311
I139
tp1271
sg4
(I292
I160
tp1272
sg6
(lp1273
I301
aI149
asg8
F3.877032421265299
sg9
F1476531178497.8472
sa(dp1274
g2
(I305
I137
tp1275
sg4
(I292
I159
tp1276
sg6
(lp1277
I298
aI148
asg8
F3.6753008452290548
sg9
F1476531178648.58
sa(dp1278
g2
(I300
I137
tp1279
sg4
(I293
I162
tp1280
sg6
(lp1281
I296
aI149
asg8
F3.4146013566765037
sg9
F1476531178784.323
sa(dp1282
g2
(I299
I136
tp1283
sg4
(I291
I161
tp1284
sg6
(lp1285
I295
aI148
asg8
F3.4512955981322495
sg9
F1476531178901.0889
sa(dp1286
g2
(I299
I133
tp1287
sg4
(I290
I156
tp1288
sg6
(lp1289
I294
aI144
asg8
F3.514580375389854
sg9
F1476531179060.024
sa(dp1290
g2
(I300
I132
tp1291
sg4
(I296
I159
tp1292
sg6
(lp1293
I298
aI145
asg8
F3.2886710089781954
sg9
F1476531179147.837
sa(dp1294
g2
(I298
I135
tp1295
sg4
(I296
I161
tp1296
sg6
(lp1297
I297
aI148
asg8
F3.218364544859571
sg9
F1476531179207.9922
sa(dp1298
g2
(I299
I135
tp1299
sg4
(I298
I162
tp1300
sg6
(lp1301
I298
aI148
asg8
F3.178612769463723
sg9
F1476531179284.454
sa(dp1302
g2
(I299
I133
tp1303
sg4
(I300
I161
tp1304
sg6
(lp1305
I299
aI147
asg8
F3.1058935409104693
sg9
F1476531179452.172
sa(dp1306
g2
(I299
I131
tp1307
sg4
(I299
I158
tp1308
sg6
(lp1309
I299
aI144
asg8
F3.141592653589793
sg9
F1476531179576.226
sa(dp1310
g2
(I297
I133
tp1311
sg4
(I296
I159
tp1312
sg6
(lp1313
I296
aI146
asg8
F3.180035243610981
sg9
F1476531179720.13
sa(dp1314
g2
(I291
I135
tp1315
sg4
(I293
I162
tp1316
sg6
(lp1317
I292
aI148
asg8
F3.0676536159318526
sg9
F1476531179858.802
sa(dp1318
g2
(I289
I133
tp1319
sg4
(I292
I160
tp1320
sg6
(lp1321
I290
aI146
asg8
F3.0309354324158977
sg9
F1476531179979.834
sa(dp1322
g2
(I282
I135
tp1323
sg4
(I288
I163
tp1324
sg6
(lp1325
I285
aI149
asg8
F2.9304993203670464
sg9
F1476531180233.488
sa(dp1326
g2
(I280
I135
tp1327
sg4
(I282
I162
tp1328
sg6
(lp1329
I281
aI148
asg8
F3.0676536159318526
sg9
F1476531180317.572
sa(dp1330
g2
(I278
I135
tp1331
sg4
(I282
I161
tp1332
sg6
(lp1333
I280
aI148
asg8
F2.988943325194528
sg9
F1476531180453.978
sa(dp1334
g2
(I275
I134
tp1335
sg4
(I279
I160
tp1336
sg6
(lp1337
I277
aI147
asg8
F2.988943325194528
sg9
F1476531180600.032
sa(dp1338
g2
(I274
I136
tp1339
sg4
(I274
I163
tp1340
sg6
(lp1341
I274
aI149
asg8
F3.141592653589793
sg9
F1476531180694.057
sa(dp1342
g2
(I273
I136
tp1343
sg4
(I271
I164
tp1344
sg6
(lp1345
I272
aI150
asg8
F3.2129001183750834
sg9
F1476531180776.022
sa(dp1346
g2
(I272
I135
tp1347
sg4
(I272
I162
tp1348
sg6
(lp1349
I272
aI148
asg8
F3.141592653589793
sg9
F1476531180832.468
sa(dp1350
g2
(I271
I133
tp1351
sg4
(I269
I160
tp1352
sg6
(lp1353
I270
aI146
asg8
F3.2155316912477336
sg9
F1476531180942.792
sa(dp1354
g2
(I266
I134
tp1355
sg4
(I266
I160
tp1356
sg6
(lp1357
I266
aI147
asg8
F3.141592653589793
sg9
F1476531181033.5469
sa(dp1358
g2
(I266
I135
tp1359
sg4
(I267
I163
tp1360
sg6
(lp1361
I266
aI149
asg8
F3.1058935409104693
sg9
F1476531181100.881
sa(dp1362
g2
(I265
I136
tp1363
sg4
(I265
I164
tp1364
sg6
(lp1365
I265
aI150
asg8
F3.141592653589793
sg9
F1476531181148.619
sa(dp1366
g2
(I263
I136
tp1367
sg4
(I261
I163
tp1368
sg6
(lp1369
I262
aI149
asg8
F3.2155316912477336
sg9
F1476531181219.159
sa(dp1370
g2
(I256
I135
tp1371
sg4
(I264
I163
tp1372
sg6
(lp1373
I260
aI149
asg8
F2.8632929945846817
sg9
F1476531181288.782
sa(dp1374
g2
(I259
I133
tp1375
sg4
(I260
I160
tp1376
sg6
(lp1377
I259
aI146
asg8
F3.104572537715863
sg9
F1476531181489.671
sa(dp1378
g2
(I257
I133
tp1379
sg4
(I259
I161
tp1380
sg6
(lp1381
I258
aI147
asg8
F3.070285188804503
sg9
F1476531181596.2131
sa(dp1382
g2
(I252
I135
tp1383
sg4
(I252
I162
tp1384
sg6
(lp1385
I252
aI148
asg8
F3.141592653589793
sg9
F1476531181716.756
sa(dp1386
g2
(I252
I134
tp1387
sg4
(I250
I160
tp1388
sg6
(lp1389
I251
aI147
asg8
F3.218364544859571
sg9
F1476531181854.959
sa(dp1390
g2
(I246
I132
tp1391
sg4
(I250
I158
tp1392
sg6
(lp1393
I248
aI145
asg8
F2.988943325194528
sg9
F1476531181982.3862
sa(dp1394
g2
(I247
I133
tp1395
sg4
(I256
I166
tp1396
sg6
(lp1397
I251
aI149
asg8
F2.875340604438868
sg9
F1476531182100.373
sa(dp1398
g2
(I242
I135
tp1399
sg4
(I238
I161
tp1400
sg6
(lp1401
I240
aI148
asg8
F3.294241981985058
sg9
F1476531182269.711
sa(dp1402
g2
(I237
I133
tp1403
sg4
(I241
I160
tp1404
sg6
(lp1405
I239
aI146
asg8
F2.994514298201391
sg9
F1476531182366.3271
sa(dp1406
g2
(I236
I132
tp1407
sg4
(I238
I160
tp1408
sg6
(lp1409
I237
aI146
asg8
F3.070285188804503
sg9
F1476531182502.451
sa(dp1410
g2
(I234
I135
tp1411
sg4
(I229
I159
tp1412
sg6
(lp1413
I231
aI147
asg8
F3.3469880427795604
sg9
F1476531182572.9421
sa(dp1414
g2
(I233
I135
tp1415
sg4
(I231
I161
tp1416
sg6
(lp1417
I232
aI148
asg8
F3.218364544859571
sg9
F1476531182731.407
sa(dp1418
g2
(I228
I134
tp1419
sg4
(I232
I160
tp1420
sg6
(lp1421
I230
aI147
asg8
F2.988943325194528
sg9
F1476531182853.917
sa(dp1422
g2
(I228
I132
tp1423
sg4
(I227
I157
tp1424
sg6
(lp1425
I227
aI144
asg8
F3.181571340713083
sg9
F1476531182989.441
sa(dp1426
g2
(I225
I134
tp1427
sg4
(I223
I160
tp1428
sg6
(lp1429
I224
aI147
asg8
F3.218364544859571
sg9
F1476531183132.905
sa(dp1430
g2
(I221
I134
tp1431
sg4
(I219
I160
tp1432
sg6
(lp1433
I220
aI147
asg8
F3.218364544859571
sg9
F1476531183255.949
sa(dp1434
g2
(I217
I132
tp1435
sg4
(I217
I157
tp1436
sg6
(lp1437
I217
aI144
asg8
F3.141592653589793
sg9
F1476531183382.55
sa(dp1438
g2
(I218
I131
tp1439
sg4
(I211
I156
tp1440
sg6
(lp1441
I214
aI143
asg8
F3.4146013566765037
sg9
F1476531183493.7898
sa(dp1442
g2
(I213
I133
tp1443
sg4
(I216
I163
tp1444
sg6
(lp1445
I214
aI148
asg8
F3.0419240010986313
sg9
F1476531183650.9968
sa(dp1446
g2
(I213
I131
tp1447
sg4
(I212
I159
tp1448
sg6
(lp1449
I212
aI145
asg8
F3.177291766269117
sg9
F1476531183757.138
sa(dp1450
g2
(I207
I129
tp1451
sg4
(I208
I155
tp1452
sg6
(lp1453
I207
aI142
asg8
F3.1031500635686053
sg9
F1476531183916.75
sa(dp1454
g2
(I207
I131
tp1455
sg4
(I204
I158
tp1456
sg6
(lp1457
I205
aI144
asg8
F3.2522498747636885
sg9
F1476531184056.119
sa(dp1458
g2
(I204
I132
tp1459
sg4
(I198
I156
tp1460
sg6
(lp1461
I201
aI144
asg8
F3.3865713167166573
sg9
F1476531184174.406
sa(dp1462
g2
(I198
I129
tp1463
sg4
(I201
I157
tp1464
sg6
(lp1465
I199
aI143
asg8
F3.0348569809406576
sg9
F1476531184324.634
sa(dp1466
g2
(I197
I128
tp1467
sg4
(I198
I155
tp1468
sg6
(lp1469
I197
aI141
asg8
F3.104572537715863
sg9
F1476531184452.003
sa(dp1470
g2
(I195
I130
tp1471
sg4
(I195
I159
tp1472
sg6
(lp1473
I195
aI144
asg8
F3.141592653589793
sg9
F1476531184574.238
sa(dp1474
g2
(I191
I129
tp1475
sg4
(I189
I155
tp1476
sg6
(lp1477
I190
aI142
asg8
F3.218364544859571
sg9
F1476531184708.94
sa(dp1478
g2
(I188
I127
tp1479
sg4
(I191
I155
tp1480
sg6
(lp1481
I189
aI141
asg8
F3.0348569809406576
sg9
F1476531184850.448
sa(dp1482
g2
(I186
I129
tp1483
sg4
(I181
I153
tp1484
sg6
(lp1485
I183
aI141
asg8
F3.3469880427795604
sg9
F1476531184956.955
sa(dp1486
g2
(I185
I129
tp1487
sg4
(I186
I157
tp1488
sg6
(lp1489
I185
aI143
asg8
F3.1058935409104693
sg9
F1476531185121.4858
sa(dp1490
g2
(I183
I125
tp1491
sg4
(I181
I151
tp1492
sg6
(lp1493
I182
aI138
asg8
F3.218364544859571
sg9
F1476531185251.238
sa(dp1494
g2
(I178
I126
tp1495
sg4
(I179
I151
tp1496
sg6
(lp1497
I178
aI138
asg8
F3.1016139664665032
sg9
F1476531185380.3179
sa(dp1498
g2
(I175
I128
tp1499
sg4
(I174
I155
tp1500
sg6
(lp1501
I174
aI141
asg8
F3.178612769463723
sg9
F1476531185501.03
sa(dp1502
g2
(I172
I127
tp1503
sg4
(I183
I160
tp1504
sg6
(lp1505
I177
aI143
asg8
F2.819842099193151
sg9
F1476531185658.4512
sa(dp1506
g2
(I171
I125
tp1507
sg4
(I169
I151
tp1508
sg6
(lp1509
I170
aI138
asg8
F3.218364544859571
sg9
F1476531185776.669
sa(dp1510
g2
(I168
I126
tp1511
sg4
(I161
I151
tp1512
sg6
(lp1513
I164
aI138
asg8
F3.4146013566765037
sg9
F1476531185918.245
sa(dp1514
g2
(I165
I127
tp1515
sg4
(I173
I158
tp1516
sg6
(lp1517
I169
aI142
asg8
F2.8890383778117337
sg9
F1476531186067.7012
sa(dp1518
g2
(I161
I125
tp1519
sg4
(I161
I152
tp1520
sg6
(lp1521
I161
aI138
asg8
F3.141592653589793
sg9
F1476531186171.0562
sa(dp1522
g2
(I159
I124
tp1523
sg4
(I159
I150
tp1524
sg6
(lp1525
I159
aI137
asg8
F3.141592653589793
sg9
F1476531186240.826
sa(dp1526
g2
(I160
I125
tp1527
sg4
(I157
I151
tp1528
sg6
(lp1529
I158
aI138
asg8
F3.256469259006692
sg9
F1476531186400.258
sa(dp1530
g2
(I154
I127
tp1531
sg4
(I155
I154
tp1532
sg6
(lp1533
I154
aI140
asg8
F3.104572537715863
sg9
F1476531186517.301
sa(dp1534
g2
(I148
I126
tp1535
sg4
(I157
I153
tp1536
sg6
(lp1537
I152
aI139
asg8
F2.819842099193151
sg9
F1476531186642.874
sa(dp1538
g2
(I151
I123
tp1539
sg4
(I152
I152
tp1540
sg6
(lp1541
I151
aI137
asg8
F3.107123552590285
sg9
F1476531186777.639
sa(dp1542
g2
(I145
I126
tp1543
sg4
(I144
I153
tp1544
sg6
(lp1545
I144
aI139
asg8
F3.178612769463723
sg9
F1476531186927.785
sa(dp1546
g2
(I142
I126
tp1547
sg4
(I143
I153
tp1548
sg6
(lp1549
I142
aI139
asg8
F3.104572537715863
sg9
F1476531187054.427
sa(dp1550
g2
(I141
I124
tp1551
sg4
(I141
I149
tp1552
sg6
(lp1553
I141
aI136
asg8
F3.141592653589793
sg9
F1476531187160.532
sa(dp1554
g2
(I141
I124
tp1555
sg4
(I143
I152
tp1556
sg6
(lp1557
I142
aI138
asg8
F3.070285188804503
sg9
F1476531187269.207
sa(dp1558
g2
(I136
I126
tp1559
sg4
(I137
I155
tp1560
sg6
(lp1561
I136
aI140
asg8
F3.107123552590285
sg9
F1476531187346.126
sa(dp1562
g2
(I132
I127
tp1563
sg4
(I124
I149
tp1564
sg6
(lp1565
I128
aI138
asg8
F3.4903636571737002
sg9
F1476531187413.892
sa(dp1566
g2
(I131
I127
tp1567
sg4
(I140
I155
tp1568
sg6
(lp1569
I135
aI141
asg8
F2.830594372984252
sg9
F1476531187571.644
sa(dp1570
g2
(I130
I127
tp1571
sg4
(I128
I150
tp1572
sg6
(lp1573
I129
aI138
asg8
F3.228330992265778
sg9
F1476531187839.416
sa(dp1574
g2
(I131
I127
tp1575
sg4
(I141
I156
tp1576
sg6
(lp1577
I136
aI141
asg8
F2.8095331860469077
sg9
F1476531187986.4521
sa(dp1578
g2
(I130
I126
tp1579
sg4
(I132
I150
tp1580
sg6
(lp1581
I131
aI138
asg8
F3.058451421701352
sg9
F1476531188087.905
sa(dp1582
g2
(I134
I126
tp1583
sg4
(I131
I151
tp1584
sg6
(lp1585
I132
aI138
asg8
F3.2610215796081317
sg9
F1476531188251.911
sa(dp1586
g2
(I130
I128
tp1587
sg4
(I131
I154
tp1588
sg6
(lp1589
I130
aI141
asg8
F3.1031500635686053
sg9
F1476531188352.418
sa(dp1590
g2
(I131
I127
tp1591
sg4
(I131
I153
tp1592
sg6
(lp1593
I131
aI140
asg8
F3.141592653589793
sg9
F1476531188535.502
sa(dp1594
g2
(I130
I126
tp1595
sg4
(I129
I149
tp1596
sg6
(lp1597
I129
aI137
asg8
F3.185043548981324
sg9
F1476531188635.885
sa(dp1598
g2
(I132
I126
tp1599
sg4
(I142
I157
tp1600
sg6
(lp1601
I137
aI141
asg8
F2.82955053202726
sg9
F1476531188812.8792
sa(dp1602
g2
(I130
I128
tp1603
sg4
(I129
I154
tp1604
sg6
(lp1605
I129
aI141
asg8
F3.180035243610981
sg9
F1476531188926.095
sa(dp1606
g2
(I131
I127
tp1607
sg4
(I124
I151
tp1608
sg6
(lp1609
I127
aI139
asg8
F3.425386762798121
sg9
F1476531189069.449
sa(dp1610
g2
(I132
I126
tp1611
sg4
(I129
I152
tp1612
sg6
(lp1613
I130
aI139
asg8
F3.256469259006692
sg9
F1476531189198.569
sa(dp1614
g2
(I131
I128
tp1615
sg4
(I125
I152
tp1616
sg6
(lp1617
I128
aI140
asg8
F3.3865713167166573
sg9
F1476531189330.4292
sa(dp1618
g2
(I130
I128
tp1619
sg4
(I130
I155
tp1620
sg6
(lp1621
I130
aI141
asg8
F3.141592653589793
sg9
F1476531189475.851
sa(dp1622
g2
(I130
I126
tp1623
sg4
(I130
I153
tp1624
sg6
(lp1625
I130
aI139
asg8
F3.141592653589793
sg9
F1476531189601.6072
sa(dp1626
g2
(I125
I125
tp1627
sg4
(I128
I152
tp1628
sg6
(lp1629
I126
aI138
asg8
F3.0309354324158977
sg9
F1476531189727.051
sa(dp1630
g2
(I122
I127
tp1631
sg4
(I123
I155
tp1632
sg6
(lp1633
I122
aI141
asg8
F3.1058935409104693
sg9
F1476531189868.85
sa(dp1634
g2
(I115
I127
tp1635
sg4
(I119
I153
tp1636
sg6
(lp1637
I117
aI140
asg8
F2.988943325194528
sg9
F1476531189996.778
sa(dp1638
g2
(I115
I125
tp1639
sg4
(I119
I152
tp1640
sg6
(lp1641
I117
aI138
asg8
F2.994514298201391
sg9
F1476531190122.981
sa(dp1642
g2
(I114
I125
tp1643
sg4
(I112
I150
tp1644
sg6
(lp1645
I113
aI137
asg8
F3.2214226393020304
sg9
F1476531190183.9211
sa(dp1646
g2
(I115
I126
tp1647
sg4
(I117
I153
tp1648
sg6
(lp1649
I116
aI139
asg8
F3.0676536159318526
sg9
F1476531190250.853
sa(dp1650
g2
(I108
I127
tp1651
sg4
(I114
I154
tp1652
sg6
(lp1653
I111
aI140
asg8
F2.922923707715851
sg9
F1476531190385.052
sa(dp1654
g2
(I115
I126
tp1655
sg4
(I116
I152
tp1656
sg6
(lp1657
I115
aI139
asg8
F3.1031500635686053
sg9
F1476531190546.572
sa(dp1658
g2
(I111
I125
tp1659
sg4
(I111
I149
tp1660
sg6
(lp1661
I111
aI137
asg8
F3.141592653589793
sg9
F1476531190650.178
sa(dp1662
g2
(I115
I126
tp1663
sg4
(I118
I154
tp1664
sg6
(lp1665
I116
aI140
asg8
F3.0348569809406576
sg9
F1476531190730.243
sa(dp1666
g2
(I113
I127
tp1667
sg4
(I109
I152
tp1668
sg6
(lp1669
I111
aI139
asg8
F3.3002479157761946
sg9
F1476531190911.092
sa(dp1670
g2
(I105
I127
tp1671
sg4
(I114
I153
tp1672
sg6
(lp1673
I109
aI140
asg8
F2.8083483524781205
sg9
F1476531190989.792
sa(dp1674
g2
(I115
I123
tp1675
sg4
(I107
I148
tp1676
sg6
(lp1677
I111
aI135
asg8
F3.4512955981322495
sg9
F1476531191173.779
sa(dp1678
g2
(I110
I124
tp1679
sg4
(I104
I149
tp1680
sg6
(lp1681
I107
aI136
asg8
F3.3771376343106563
sg9
F1476531191274.141
sa(dp1682
g2
(I106
I126
tp1683
sg4
(I111
I153
tp1684
sg6
(lp1685
I108
aI139
asg8
F2.958481836327309
sg9
F1476531191376.284
sa(dp1686
g2
(I111
I125
tp1687
sg4
(I107
I150
tp1688
sg6
(lp1689
I109
aI137
asg8
F3.3002479157761946
sg9
F1476531191495.027
sa(dp1690
g2
(I107
I123
tp1691
sg4
(I106
I147
tp1692
sg6
(lp1693
I106
aI135
asg8
F3.1832352326883817
sg9
F1476531191675.735
sa(dp1694
g2
(I103
I126
tp1695
sg4
(I108
I151
tp1696
sg6
(lp1697
I105
aI138
asg8
F2.9441970937399122
sg9
F1476531191812.709
sa(dp1698
g2
(I105
I126
tp1699
sg4
(I113
I153
tp1700
sg6
(lp1701
I109
aI139
asg8
F2.8535372065391673
sg9
F1476531191929.728
sa(dp1702
g2
(I106
I123
tp1703
sg4
(I108
I149
tp1704
sg6
(lp1705
I107
aI136
asg8
F3.064820762320015
sg9
F1476531192062.136
sa(dp1706
g2
(I106
I123
tp1707
sg4
(I104
I148
tp1708
sg6
(lp1709
I105
aI135
asg8
F3.2214226393020304
sg9
F1476531192191.445
sa(dp1710
g2
(I102
I126
tp1711
sg4
(I97
I150
tp1712
sg6
(lp1713
I99
aI138
asg8
F3.3469880427795604
sg9
F1476531192352.835
sa(dp1714
g2
(I102
I126
tp1715
sg4
(I100
I153
tp1716
sg6
(lp1717
I101
aI139
asg8
F3.2155316912477336
sg9
F1476531192467.672
sa(dp1718
g2
(I95
I124
tp1719
sg4
(I94
I149
tp1720
sg6
(lp1721
I94
aI136
asg8
F3.181571340713083
sg9
F1476531192566.2
sa(dp1722
g2
(I96
I124
tp1723
sg4
(I86
I147
tp1724
sg6
(lp1725
I91
aI135
asg8
F3.5517199941312843
sg9
F1476531192750.259
sa(dp1726
g2
(I91
I127
tp1727
sg4
(I100
I158
tp1728
sg6
(lp1729
I95
aI142
asg8
F2.8590377011202057
sg9
F1476531192851.878
sa(dp1730
g2
(I93
I126
tp1731
sg4
(I89
I151
tp1732
sg6
(lp1733
I91
aI138
asg8
F3.3002479157761946
sg9
F1476531192983.79
sa(dp1734
g2
(I85
I124
tp1735
sg4
(I87
I149
tp1736
sg6
(lp1737
I86
aI136
asg8
F3.061762667877556
sg9
F1476531193148.927
sa(dp1738
g2
(I84
I125
tp1739
sg4
(I91
I155
tp1740
sg6
(lp1741
I87
aI140
asg8
F2.912360720312798
sg9
F1476531193259.5369
sa(dp1742
g2
(I80
I126
tp1743
sg4
(I69
I147
tp1744
sg6
(lp1745
I74
aI136
asg8
F3.62410594861227
sg9
F1476531193393.7239
sa(dp1746
g2
(I77
I124
tp1747
sg4
(I81
I149
tp1748
sg6
(lp1749
I79
aI136
asg8
F2.9829373914033916
sg9
F1476531193531.11
sa(dp1750
g2
(I83
I123
tp1751
sg4
(I74
I147
tp1752
sg6
(lp1753
I78
aI135
asg8
F3.5003633238603653
sg9
F1476531193648.16
sa(dp1754
g2
(I77
I125
tp1755
sg4
(I76
I153
tp1756
sg6
(lp1757
I76
aI139
asg8
F3.177291766269117
sg9
F1476531193771.961
sa(dp1758
g2
(I70
I125
tp1759
sg4
(I74
I153
tp1760
sg6
(lp1761
I72
aI139
asg8
F2.999695598985629
sg9
F1476531193825.15
sa(dp1762
g2
(I70
I124
tp1763
sg4
(I69
I150
tp1764
sg6
(lp1765
I69
aI137
asg8
F3.180035243610981
sg9
F1476531194102.084
sa(dp1766
g2
(I68
I125
tp1767
sg4
(I61
I150
tp1768
sg6
(lp1769
I64
aI137
asg8
F3.4146013566765037
sg9
F1476531194167.9639
sa(dp1770
g2
(I66
I125
tp1771
sg4
(I74
I157
tp1772
sg6
(lp1773
I70
aI141
asg8
F2.896613990462929
sg9
F1476531194313.111
sa(dp1774
g2
(I69
I122
tp1775
sg4
(I67
I151
tp1776
sg6
(lp1777
I68
aI136
asg8
F3.2104491428908375
sg9
F1476531194461.762
sa(dp1778
g2
(I64
I122
tp1779
sg4
(I56
I146
tp1780
sg6
(lp1781
I60
aI134
asg8
F3.4633432079864352
sg9
F1476531194561.916
sa(dp1782
g2
(I57
I124
tp1783
sg4
(I59
I152
tp1784
sg6
(lp1785
I58
aI138
asg8
F3.070285188804503
sg9
F1476531194728.282
sa(dp1786
g2
(I49
I122
tp1787
sg4
(I60
I152
tp1788
sg6
(lp1789
I54
aI137
asg8
F2.7901478595862415
sg9
F1476531195101.564
sa(dp1790
g2
(I48
I124
tp1791
sg4
(I61
I155
tp1792
sg6
(lp1793
I54
aI139
asg8
F2.7445132083648107
sg9
F1476531195187.919
sa(dp1794
g2
(I42
I123
tp1795
sg4
(I51
I150
tp1796
sg6
(lp1797
I46
aI136
asg8
F2.819842099193151
sg9
F1476531195329.895
sa(dp1798
g2
(I48
I121
tp1799
sg4
(I48
I147
tp1800
sg6
(lp1801
I48
aI134
asg8
F3.141592653589793
sg9
F1476531195444.041
sa(dp1802
g2
(I39
I120
tp1803
sg4
(I29
I140
tp1804
sg6
(lp1805
I34
aI130
asg8
F3.6052402625905993
sg9
F1476531195593.401
sa(dp1806
g2
(I39
I122
tp1807
sg4
(I24
I143
tp1808
sg6
(lp1809
I31
aI132
asg8
F3.7618421395726145
sg9
F1476531195718.8499
sa(dp1810
g2
(I35
I122
tp1811
sg4
(I37
I148
tp1812
sg6
(lp1813
I36
aI135
asg8
F3.064820762320015
sg9
F1476531195830.769
sa(dp1814
g2
(I35
I120
tp1815
sg4
(I32
I145
tp1816
sg6
(lp1817
I33
aI132
asg8
F3.2610215796081317
sg9
F1476531195960.713
sa(dp1818
g2
(I34
I122
tp1819
sg4
(I32
I147
tp1820
sg6
(lp1821
I33
aI134
asg8
F3.2214226393020304
sg9
F1476531196090.7542
sa(dp1822
g2
(I11
I121
tp1823
sg4
(I31
I148
tp1824
sg6
(lp1825
I21
aI134
asg8
F2.5040438554511004
sg9
F1476531196266.7798
sa(dp1826
g2
(I27
I118
tp1827
sg4
(I30
I145
tp1828
sg6
(lp1829
I28
aI131
asg8
F3.0309354324158977
sg9
F1476531196343.697
sa(dp1830
g2
(I18
I118
tp1831
sg4
(I22
I147
tp1832
sg6
(lp1833
I20
aI132
asg8
F3.0045264792796056
sg9
F1476531196649.252
sa(dp1834
g2
(I21
I117
tp1835
sg4
(I6
I135
tp1836
sg6
(lp1837
I13
aI126
asg8
F3.8363309297864965
sg9
F1476531196814.392
sa(dp1838
g2
(I16
I114
tp1839
sg4
(I11
I138
tp1840
sg6
(lp1841
I13
aI126
asg8
F3.3469880427795604
sg9
F1476531196905.7231
sa(dp1842
g2
(I15
I114
tp1843
sg4
(I11
I141
tp1844
sg6
(lp1845
I13
aI127
asg8
F3.2886710089781954
sg9
F1476531197102.136
sa(dp1846
g2
(I13
I115
tp1847
sg4
(I12
I144
tp1848
sg6
(lp1849
I12
aI129
asg8
F3.176061754589301
sg9
F1476531197171.0142
sa(dp1850
g2
(I15
I111
tp1851
sg4
(I3
I75
tp1852
sg6
(lp1853
I9
aI93
asg8
F5.961434752782944
sg9
F1476531197303.597
sa(dp1854
g2
(I14
I111
tp1855
sg4
(I3
I75
tp1856
sg6
(lp1857
I8
aI93
asg8
F5.986639498109886
sg9
F1476531197419.7258
sa(dp1858
g2
(I12
I113
tp1859
sg4
(I3
I77
tp1860
sg6
(lp1861
I7
aI95
asg8
F6.038206644052722
sg9
F1476531197598.275
sa(dp1862
g2
(I8
I112
tp1863
sg4
(I1
I77
tp1864
sg6
(lp1865
I4
aI94
asg8
F6.085789747329706
sg9
F1476531197704.1472
sa(dp1866
g2
(I9
I110
tp1867
sg4
(I8
I137
tp1868
sg6
(lp1869
I8
aI123
asg8
F3.178612769463723
sg9
F1476531197824.552
sa(dp1870
g2
(I9
I110
tp1871
sg4
(I4
I135
tp1872
sg6
(lp1873
I6
aI122
asg8
F3.338988213439674
sg9
F1476531197896.9878
sa(dp1874
g2
(I1
I110
tp1875
sg4
(I1
I77
tp1876
sg6
(lp1877
I1
aI93
asg8
F3.141592653589793
sg9
F1476531198083.4402
sa(dp1878
g2
(I4
I106
tp1879
sg4
(I3
I136
tp1880
sg6
(lp1881
I3
aI121
asg8
F3.1749136494680403
sg9
F1476531198175.698
sa(dp1882
g2
(I3
I105
tp1883
sg4
(I1
I133
tp1884
sg6
(lp1885
I2
aI119
asg8
F3.2129001183750834
sg9
F1476531198333.209
sa(dp1886
g2
(I3
I104
tp1887
sg4
(I2
I77
tp1888
sg6
(lp1889
I2
aI90
asg8
F6.246165191305656
sg9
F1476531198442.355
sa(dp1890
g2
(I1
I109
tp1891
sg4
(I1
I77
tp1892
sg6
(lp1893
I1
aI93
asg8
F3.141592653589793
sg9
F1476531198709.801
sa(dp1894
g2
(I33
I282
tp1895
sg4
(I38
I267
tp1896
sg6
(lp1897
I35
aI274
asg8
F0.3217505543966422
sg9
F1476531201910.988
sa(dp1898
g2
(I49
I292
tp1899
sg4
(I49
I273
tp1900
sg6
(lp1901
I49
aI282
asg8
F3.141592653589793
sg9
F1476531202077.836
sa(dp1902
g2
(I66
I297
tp1903
sg4
(I60
I277
tp1904
sg6
(lp1905
I63
aI287
asg8
F5.9917285127017195
sg9
F1476531202158.8298
sa(dp1906
g2
(I70
I300
tp1907
sg4
(I62
I280
tp1908
sg6
(lp1909
I66
aI290
asg8
F5.902678930067221
sg9
F1476531202318.998
sa(dp1910
g2
(I68
I301
tp1911
sg4
(I63
I281
tp1912
sg6
(lp1913
I65
aI291
asg8
F6.038206644052722
sg9
F1476531202436.496
sa(dp1914
g2
(I69
I301
tp1915
sg4
(I65
I281
tp1916
sg6
(lp1917
I67
aI291
asg8
F6.085789747329706
sg9
F1476531202534.038
sa(dp1918
g2
(I73
I304
tp1919
sg4
(I75
I279
tp1920
sg6
(lp1921
I74
aI291
asg8
F0.07982998571223732
sg9
F1476531203192.089
sa(dp1922
g2
(I73
I307
tp1923
sg4
(I69
I285
tp1924
sg6
(lp1925
I71
aI296
asg8
F6.103331807387108
sg9
F1476531203317.68
sa(dp1926
g2
(I72
I306
tp1927
sg4
(I74
I286
tp1928
sg6
(lp1929
I73
aI296
asg8
F0.09966865249116204
sg9
F1476531203441.133
sa(dp1930
g2
(I70
I304
tp1931
sg4
(I72
I285
tp1932
sg6
(lp1933
I71
aI294
asg8
F0.10487693873023389
sg9
F1476531203636.115
sa(dp1934
g2
(I69
I306
tp1935
sg4
(I76
I286
tp1936
sg6
(lp1937
I72
aI296
asg8
F0.33667481938672716
sg9
F1476531203755.378
sa(dp1938
g2
(I68
I307
tp1939
sg4
(I55
I286
tp1940
sg6
(lp1941
I61
aI296
asg8
F5.728877810978035
sg9
F1476531203855.8281
sa(dp1942
g2
(I64
I306
tp1943
sg4
(I71
I288
tp1944
sg6
(lp1945
I67
aI297
asg8
F0.37089128881266237
sg9
F1476531203931.06
sa(dp1946
g2
(I66
I304
tp1947
sg4
(I72
I287
tp1948
sg6
(lp1949
I69
aI295
asg8
F0.3392926144540447
sg9
F1476531204014.373
sa(dp1950
g2
(I67
I305
tp1951
sg4
(I75
I287
tp1952
sg6
(lp1953
I71
aI296
asg8
F0.41822432957922906
sg9
F1476531204104.23
sa(dp1954
g2
(I64
I306
tp1955
sg4
(I76
I290
tp1956
sg6
(lp1957
I70
aI298
asg8
F0.6435011087932844
sg9
F1476531204286.926
sa(dp1958
g2
(I76
I316
tp1959
sg4
(I83
I295
tp1960
sg6
(lp1961
I79
aI305
asg8
F0.3217505543966422
sg9
F1476531205342.632
sa(dp1962
g2
(I75
I314
tp1963
sg4
(I88
I291
tp1964
sg6
(lp1965
I81
aI302
asg8
F0.5144513130590277
sg9
F1476531205453.881
sa(dp1966
g2
(I77
I316
tp1967
sg4
(I83
I292
tp1968
sg6
(lp1969
I80
aI304
asg8
F0.24497866312686414
sg9
F1476531205606.8152
sa(dp1970
g2
(I78
I318
tp1971
sg4
(I79
I293
tp1972
sg6
(lp1973
I78
aI305
asg8
F0.039978687123290044
sg9
F1476531205696.262
sa(dp1974
g2
(I78
I316
tp1975
sg4
(I82
I292
tp1976
sg6
(lp1977
I80
aI304
asg8
F0.16514867741462683
sg9
F1476531205820.9219
sa(dp1978
g2
(I75
I314
tp1979
sg4
(I85
I288
tp1980
sg6
(lp1981
I80
aI301
asg8
F0.3671738338182192
sg9
F1476531205978.209
sa(dp1982
g2
(I77
I316
tp1983
sg4
(I78
I290
tp1984
sg6
(lp1985
I77
aI303
asg8
F0.03844259002118799
sg9
F1476531206117.821
sa(dp1986
g2
(I78
I317
tp1987
sg4
(I76
I292
tp1988
sg6
(lp1989
I77
aI304
asg8
F6.203355321467349
sg9
F1476531206246.5278
sa(dp1990
g2
(I80
I314
tp1991
sg4
(I86
I290
tp1992
sg6
(lp1993
I83
aI302
asg8
F0.24497866312686414
sg9
F1476531206416.011
sa(dp1994
g2
(I81
I314
tp1995
sg4
(I88
I289
tp1996
sg6
(lp1997
I84
aI301
asg8
F0.2730087030867106
sg9
F1476531206508.545
sa(dp1998
g2
(I87
I317
tp1999
sg4
(I84
I292
tp2000
sg6
(lp2001
I85
aI304
asg8
F6.163756381161248
sg9
F1476531206636.7239
sa(dp2002
g2
(I90
I317
tp2003
sg4
(I89
I293
tp2004
sg6
(lp2005
I89
aI305
asg8
F6.241542728080998
sg9
F1476531206796.7761
sa(dp2006
g2
(I89
I315
tp2007
sg4
(I95
I291
tp2008
sg6
(lp2009
I92
aI303
asg8
F0.24497866312686414
sg9
F1476531206886.696
sa(dp2010
g2
(I90
I316
tp2011
sg4
(I98
I292
tp2012
sg6
(lp2013
I94
aI304
asg8
F0.3217505543966422
sg9
F1476531206987.136
sa(dp2014
g2
(I91
I318
tp2015
sg4
(I95
I293
tp2016
sg6
(lp2017
I93
aI305
asg8
F0.1586552621864014
sg9
F1476531207148.5742
sa(dp2018
g2
(I91
I319
tp2019
sg4
(I96
I296
tp2020
sg6
(lp2021
I93
aI307
asg8
F0.2140606835638215
sg9
F1476531207287.7751
sa(dp2022
g2
(I89
I317
tp2023
sg4
(I98
I294
tp2024
sg6
(lp2025
I93
aI305
asg8
F0.372987721800061
sg9
F1476531207414.0962
sa(dp2026
g2
(I93
I318
tp2027
sg4
(I100
I295
tp2028
sg6
(lp2029
I96
aI306
asg8
F0.29544083714372
sg9
F1476531207571.675
sa(dp2030
g2
(I100
I322
tp2031
sg4
(I99
I298
tp2032
sg6
(lp2033
I99
aI310
asg8
F6.241542728080998
sg9
F1476531207691.793
sa(dp2034
g2
(I101
I319
tp2035
sg4
(I105
I295
tp2036
sg6
(lp2037
I103
aI307
asg8
F0.16514867741462683
sg9
F1476531207852.646
sa(dp2038
g2
(I101
I318
tp2039
sg4
(I110
I293
tp2040
sg6
(lp2041
I105
aI305
asg8
F0.34555558058171215
sg9
F1476531207970.1418
sa(dp2042
g2
(I101
I320
tp2043
sg4
(I105
I296
tp2044
sg6
(lp2045
I103
aI308
asg8
F0.16514867741462683
sg9
F1476531208117.805
sa(dp2046
g2
(I97
I319
tp2047
sg4
(I104
I296
tp2048
sg6
(lp2049
I100
aI307
asg8
F0.29544083714372
sg9
F1476531208249.747
sa(dp2050
g2
(I95
I319
tp2051
sg4
(I100
I295
tp2052
sg6
(lp2053
I97
aI307
asg8
F0.2053953891897674
sg9
F1476531208363.172
sa(dp2054
g2
(I94
I322
tp2055
sg4
(I94
I297
tp2056
sg6
(lp2057
I94
aI309
asg8
F3.141592653589793
sg9
F1476531208518.6091
sa(dp2058
g2
(I91
I323
tp2059
sg4
(I91
I299
tp2060
sg6
(lp2061
I91
aI311
asg8
F3.141592653589793
sg9
F1476531208676.2239
sa(dp2062
g2
(I89
I320
tp2063
sg4
(I72
I298
tp2064
sg6
(lp2065
I80
aI309
asg8
F5.625296701997376
sg9
F1476531208799.0269
sa(dp2066
g2
(I89
I318
tp2067
sg4
(I74
I293
tp2068
sg6
(lp2069
I81
aI305
asg8
F5.742765806909002
sg9
F1476531208873.666
sa(dp2070
g2
(I89
I320
tp2071
sg4
(I74
I291
tp2072
sg6
(lp2073
I81
aI305
asg8
F5.805839924805914
sg9
F1476531208945.7542
sa(dp2074
g2
(I92
I321
tp2075
sg4
(I73
I294
tp2076
sg6
(lp2077
I82
aI307
asg8
F5.669977958305077
sg9
F1476531209050.69
sa(dp2078
g2
(I92
I322
tp2079
sg4
(I97
I298
tp2080
sg6
(lp2081
I94
aI310
asg8
F0.2053953891897674
sg9
F1476531209198.3481
sa(dp2082
g2
(I93
I319
tp2083
sg4
(I103
I294
tp2084
sg6
(lp2085
I98
aI306
asg8
F0.3805063771123649
sg9
F1476531209358.5
sa(dp2086
g2
(I94
I318
tp2087
sg4
(I69
I293
tp2088
sg6
(lp2089
I81
aI305
asg8
F5.497787143782138
sg9
F1476531209503.06
sa(dp2090
g2
(I98
I321
tp2091
sg4
(I97
I294
tp2092
sg6
(lp2093
I97
aI307
asg8
F6.246165191305656
sg9
F1476531209597.1912
sa(dp2094
g2
(I100
I321
tp2095
sg4
(I99
I296
tp2096
sg6
(lp2097
I99
aI308
asg8
F6.243206620056296
sg9
F1476531209704.3892
sa(dp2098
g2
(I95
I317
tp2099
sg4
(I99
I292
tp2100
sg6
(lp2101
I97
aI304
asg8
F0.1586552621864014
sg9
F1476531209796.157
sa(dp2102
g2
(I93
I317
tp2103
sg4
(I99
I292
tp2104
sg6
(lp2105
I96
aI304
asg8
F0.23554498072086333
sg9
F1476531209918.9392
sa(dp2106
g2
(I96
I318
tp2107
sg4
(I94
I295
tp2108
sg6
(lp2109
I95
aI306
asg8
F6.196446968503601
sg9
F1476531210066.993
sa(dp2110
g2
(I98
I319
tp2111
sg4
(I85
I299
tp2112
sg6
(lp2113
I91
aI309
asg8
F5.706810086588402
sg9
F1476531210184.9512
sa(dp2114
g2
(I95
I316
tp2115
sg4
(I88
I297
tp2116
sg6
(lp2117
I91
aI306
asg8
F5.930194919352676
sg9
F1476531210284.3772
sa(dp2118
g2
(I95
I315
tp2119
sg4
(I95
I293
tp2120
sg6
(lp2121
I95
aI304
asg8
F3.141592653589793
sg9
F1476531210378.9849
sa(dp2122
g2
(I98
I316
tp2123
sg4
(I87
I297
tp2124
sg6
(lp2125
I92
aI306
asg8
F5.758389535529479
sg9
F1476531210450.6099
sa(dp2126
g2
(I100
I318
tp2127
sg4
(I92
I296
tp2128
sg6
(lp2129
I96
aI307
asg8
F5.93441430359568
sg9
F1476531210585.1829
sa(dp2130
g2
(I102
I317
tp2131
sg4
(I90
I296
tp2132
sg6
(lp2133
I96
aI306
asg8
F5.764039192933064
sg9
F1476531210692.892
sa(dp2134
g2
(I100
I314
tp2135
sg4
(I95
I292
tp2136
sg6
(lp2137
I97
aI303
asg8
F6.059708706038953
sg9
F1476531210849.076
sa(dp2138
g2
(I103
I313
tp2139
sg4
(I97
I292
tp2140
sg6
(lp2141
I100
aI302
asg8
F6.004885648174475
sg9
F1476531211002.707
sa(dp2142
g2
(I106
I314
tp2143
sg4
(I100
I293
tp2144
sg6
(lp2145
I103
aI303
asg8
F6.004885648174475
sg9
F1476531211093.624
sa(dp2146
g2
(I106
I310
tp2147
sg4
(I100
I293
tp2148
sg6
(lp2149
I103
aI301
asg8
F5.943892692725542
sg9
F1476531211224.3472
sa(dp2150
g2
(I102
I308
tp2151
sg4
(I96
I291
tp2152
sg6
(lp2153
I99
aI299
asg8
F5.943892692725542
sg9
F1476531211350.7449
sa(dp2154
g2
(I110
I310
tp2155
sg4
(I87
I293
tp2156
sg6
(lp2157
I98
aI301
asg8
F5.348897196172641
sg9
F1476531211544.164
sa(dp2158
g2
(I105
I304
tp2159
sg4
(I95
I289
tp2160
sg6
(lp2161
I100
aI296
asg8
F5.695182703632018
sg9
F1476531211711.11
sa(dp2162
g2
(I106
I303
tp2163
sg4
(I98
I288
tp2164
sg6
(lp2165
I102
aI295
asg8
F5.793227980925858
sg9
F1476531211790.722
sa(dp2166
g2
(I108
I301
tp2167
sg4
(I98
I285
tp2168
sg6
(lp2169
I103
aI293
asg8
F5.724585991836024
sg9
F1476531211922.023
sa(dp2170
g2
(I117
I296
tp2171
sg4
(I104
I282
tp2172
sg6
(lp2173
I110
aI289
asg8
F5.534807259656068
sg9
F1476531212196.025
sa(dp2174
g2
(I114
I293
tp2175
sg4
(I103
I278
tp2176
sg6
(lp2177
I108
aI285
asg8
F5.650436472177403
sg9
F1476531212293.937
sa(dp2178
g2
(I116
I293
tp2179
sg4
(I103
I278
tp2180
sg6
(lp2181
I109
aI285
asg8
F5.569094608567428
sg9
F1476531212369.585
sa(dp2182
g2
(I118
I293
tp2183
sg4
(I104
I278
tp2184
sg6
(lp2185
I111
aI285
asg8
F5.532256244781646
sg9
F1476531212517.725
sa(dp2186
g2
(I118
I291
tp2187
sg4
(I104
I275
tp2188
sg6
(lp2189
I111
aI283
asg8
F5.564355307557962
sg9
F1476531212647.5571
sa(dp2190
g2
(I116
I286
tp2191
sg4
(I108
I270
tp2192
sg6
(lp2193
I112
aI278
asg8
F5.81953769817878
sg9
F1476531212804.24
sa(dp2194
g2
(I120
I282
tp2195
sg4
(I117
I266
tp2196
sg6
(lp2197
I118
aI274
asg8
F6.0978373571838915
sg9
F1476531212928.525
sa(dp2198
g2
(I127
I282
tp2199
sg4
(I115
I267
tp2200
sg6
(lp2201
I121
aI274
asg8
F5.608444364956034
sg9
F1476531213069.15
sa(dp2202
g2
(I126
I278
tp2203
sg4
(I120
I264
tp2204
sg6
(lp2205
I123
aI271
asg8
F5.878293520894503
sg9
F1476531213182.176
sa(dp2206
g2
(I125
I275
tp2207
sg4
(I119
I261
tp2208
sg6
(lp2209
I122
aI268
asg8
F5.878293520894503
sg9
F1476531213299.0452
sa(dp2210
g2
(I131
I275
tp2211
sg4
(I122
I258
tp2212
sg6
(lp2213
I126
aI266
asg8
F5.796286075368317
sg9
F1476531213461.7888
sa(dp2214
g2
(I133
I275
tp2215
sg4
(I121
I259
tp2216
sg6
(lp2217
I127
aI267
asg8
F5.639684198386302
sg9
F1476531213590.05
sa(dp2218
g2
(I128
I271
tp2219
sg4
(I125
I253
tp2220
sg6
(lp2221
I126
aI262
asg8
F6.118036629764959
sg9
F1476531213729.802
sa(dp2222
g2
(I127
I270
tp2223
sg4
(I124
I251
tp2224
sg6
(lp2225
I125
aI260
asg8
F6.126583430197571
sg9
F1476531213842.577
sa(dp2226
g2
(I133
I274
tp2227
sg4
(I126
I253
tp2228
sg6
(lp2229
I129
aI263
asg8
F5.961434752782944
sg9
F1476531213963.4248
sa(dp2230
g2
(I132
I276
tp2231
sg4
(I123
I256
tp2232
sg6
(lp2233
I127
aI266
asg8
F5.860331381046645
sg9
F1476531214108.1272
sa(dp2234
g2
(I130
I274
tp2235
sg4
(I125
I253
tp2236
sg6
(lp2237
I127
aI263
asg8
F6.049442126310685
sg9
F1476531214251.1611
sa(dp2238
g2
(I131
I272
tp2239
sg4
(I127
I251
tp2240
sg6
(lp2241
I129
aI261
asg8
F6.094963801874815
sg9
F1476531214343.031
sa(dp2242
g2
(I139
I272
tp2243
sg4
(I127
I250
tp2244
sg6
(lp2245
I133
aI261
asg8
F5.783838585499456
sg9
F1476531214405.312
sa(dp2246
g2
(I141
I270
tp2247
sg4
(I129
I249
tp2248
sg6
(lp2249
I135
aI259
asg8
F5.764039192933064
sg9
F1476531214471.8052
sa(dp2250
g2
(I140
I268
tp2251
sg4
(I135
I247
tp2252
sg6
(lp2253
I137
aI257
asg8
F6.049442126310685
sg9
F1476531214535.126
sa(dp2254
g2
(I139
I266
tp2255
sg4
(I140
I245
tp2256
sg6
(lp2257
I139
aI255
asg8
F0.047583103276983396
sg9
F1476531214642.589
sa(dp2258
g2
(I139
I264
tp2259
sg4
(I139
I244
tp2260
sg6
(lp2261
I139
aI254
asg8
F3.141592653589793
sg9
F1476531214775.404
sa(dp2262
g2
(I141
I264
tp2263
sg4
(I138
I243
tp2264
sg6
(lp2265
I139
aI253
asg8
F6.141288252575422
sg9
F1476531214898.3618
sa(dp2266
g2
(I142
I267
tp2267
sg4
(I135
I247
tp2268
sg6
(lp2269
I138
aI257
asg8
F5.946510487792859
sg9
F1476531215014.154
sa(dp2270
g2
(I140
I268
tp2271
sg4
(I137
I248
tp2272
sg6
(lp2273
I138
aI258
asg8
F6.134295359570089
sg9
F1476531215152.0532
sa(dp2274
g2
(I136
I269
tp2275
sg4
(I134
I245
tp2276
sg6
(lp2277
I135
aI257
asg8
F6.200044075291145
sg9
F1476531215222.593
sa(dp2278
g2
(I137
I270
tp2279
sg4
(I133
I246
tp2280
sg6
(lp2281
I135
aI258
asg8
F6.118036629764959
sg9
F1476531215375.0132
sa(dp2282
g2
(I139
I272
tp2283
sg4
(I131
I250
tp2284
sg6
(lp2285
I135
aI261
asg8
F5.93441430359568
sg9
F1476531215500.701
sa(dp2286
g2
(I136
I272
tp2287
sg4
(I131
I249
tp2288
sg6
(lp2289
I133
aI260
asg8
F6.069124623615765
sg9
F1476531215668.752
sa(dp2290
g2
(I136
I271
tp2291
sg4
(I135
I248
tp2292
sg6
(lp2293
I135
aI259
asg8
F6.2397344117880555
sg9
F1476531215772.356
sa(dp2294
g2
(I137
I274
tp2295
sg4
(I135
I250
tp2296
sg6
(lp2297
I136
aI262
asg8
F6.200044075291145
sg9
F1476531215889.6958
sa(dp2298
g2
(I139
I274
tp2299
sg4
(I115
I277
tp2300
sg6
(lp2301
I127
aI275
asg8
F4.588033985837928
sg9
F1476531216041.959
sa(dp2302
g2
(I138
I272
tp2303
sg4
(I139
I249
tp2304
sg6
(lp2305
I138
aI260
asg8
F0.04345089539153084
sg9
F1476531216170.093
sa(dp2306
g2
(I139
I275
tp2307
sg4
(I114
I277
tp2308
sg6
(lp2309
I126
aI276
asg8
F4.632558994672452
sg9
F1476531216259.529
sa(dp2310
g2
(I137
I278
tp2311
sg4
(I145
I253
tp2312
sg6
(lp2313
I141
aI265
asg8
F0.3097029445424562
sg9
F1476531216333.7769
sa(dp2314
g2
(I137
I277
tp2315
sg4
(I144
I254
tp2316
sg6
(lp2317
I140
aI265
asg8
F0.29544083714372
sg9
F1476531216422.21
sa(dp2318
g2
(I137
I276
tp2319
sg4
(I145
I253
tp2320
sg6
(lp2321
I141
aI264
asg8
F0.3347368373168147
sg9
F1476531216568.737
sa(dp2322
g2
(I136
I274
tp2323
sg4
(I115
I277
tp2324
sg6
(lp2325
I125
aI275
asg8
F4.570491925780526
sg9
F1476531216707.723
sa(dp2326
g2
(I134
I275
tp2327
sg4
(I146
I254
tp2328
sg6
(lp2329
I140
aI264
asg8
F0.5191461142465229
sg9
F1476531216799.976
sa(dp2330
g2
(I136
I276
tp2331
sg4
(I143
I256
tp2332
sg6
(lp2333
I139
aI266
asg8
F0.33667481938672716
sg9
F1476531216896.649
sa(dp2334
g2
(I134
I275
tp2335
sg4
(I144
I256
tp2336
sg6
(lp2337
I139
aI265
asg8
F0.4844779290370232
sg9
F1476531216981.811
sa(dp2338
g2
(I134
I272
tp2339
sg4
(I147
I256
tp2340
sg6
(lp2341
I140
aI264
asg8
F0.6823165548747481
sg9
F1476531217098.352
sa(dp2342
g2
(I136
I276
tp2343
sg4
(I145
I260
tp2344
sg6
(lp2345
I140
aI268
asg8
F0.5123894603107377
sg9
F1476531217276.7588
sa(dp2346
g2
(I134
I278
tp2347
sg4
(I141
I263
tp2348
sg6
(lp2349
I137
aI270
asg8
F0.43662715981354133
sg9
F1476531217351.739
sa(dp2350
g2
(I136
I281
tp2351
sg4
(I155
I266
tp2352
sg6
(lp2353
I145
aI273
asg8
F0.9025069079643125
sg9
F1476531217760.0479
sa(dp2354
g2
(I144
I286
tp2355
sg4
(I142
I267
tp2356
sg6
(lp2357
I143
aI276
asg8
F6.178308368449352
sg9
F1476531217891.093
sa(dp2358
g2
(I143
I289
tp2359
sg4
(I161
I272
tp2360
sg6
(lp2361
I152
aI280
asg8
F0.8139618212362083
sg9
F1476531218153.774
sa(dp2362
g2
(I134
I291
tp2363
sg4
(I147
I319
tp2364
sg6
(lp2365
I140
aI305
asg8
F2.7069224384405484
sg9
F1476531222492.436
sa(dp2366
g2
(I141
I290
tp2367
sg4
(I126
I313
tp2368
sg6
(lp2369
I133
aI301
asg8
F3.719494590552039
sg9
F1476531222638.275
sa(dp2370
g2
(I129
I296
tp2371
sg4
(I127
I326
tp2372
sg6
(lp2373
I128
aI311
asg8
F3.208160817365617
sg9
F1476531223155.92
sa(dp2374
g2
(I128
I302
tp2375
sg4
(I139
I330
tp2376
sg6
(lp2377
I133
aI316
asg8
F2.767259037582209
sg9
F1476531223420.9312
sa(dp2378
g2
(I125
I300
tp2379
sg4
(I142
I329
tp2380
sg6
(lp2381
I133
aI314
asg8
F2.611376880813163
sg9
F1476531223569.761
sa(dp2382
g2
(I127
I305
tp2383
sg4
(I149
I280
tp2384
sg6
(lp2385
I138
aI292
asg8
F0.7216548508647612
sg9
F1476531224075.711
sa(dp2386
g2
(I131
I308
tp2387
sg4
(I117
I329
tp2388
sg6
(lp2389
I124
aI318
asg8
F3.7295952571373605
sg9
F1476531224793.617
sa(dp2390
g2
(I119
I308
tp2391
sg4
(I144
I336
tp2392
sg6
(lp2393
I131
aI322
asg8
F2.412737927137162
sg9
F1476531226761.2988
sa(dp2394
g2
(I128
I335
tp2395
sg4
(I138
I314
tp2396
sg6
(lp2397
I133
aI324
asg8
F0.4444192099010989
sg9
F1476531229579.243
sa(dp2398
g2
(I128
I335
tp2399
sg4
(I141
I313
tp2400
sg6
(lp2401
I134
aI324
asg8
F0.5337081916392615
sg9
F1476531229729.564
sa(dp2402
g2
(I129
I338
tp2403
sg4
(I136
I314
tp2404
sg6
(lp2405
I132
aI326
asg8
F0.28379410920832787
sg9
F1476531229774.2131
sa(dp2406
g2
(I132
I339
tp2407
sg4
(I137
I316
tp2408
sg6
(lp2409
I134
aI327
asg8
F0.2140606835638215
sg9
F1476531229830.394
sa(dp2410
g2
(I131
I338
tp2411
sg4
(I139
I314
tp2412
sg6
(lp2413
I135
aI326
asg8
F0.3217505543966422
sg9
F1476531229870.9978
sa(dp2414
g2
(I130
I336
tp2415
sg4
(I130
I307
tp2416
sg6
(lp2417
I130
aI321
asg8
F3.141592653589793
sg9
F1476531229937.407
sa(dp2418
g2
(I133
I338
tp2419
sg4
(I134
I311
tp2420
sg6
(lp2421
I133
aI324
asg8
F0.037020115873930025
sg9
F1476531229979.022
sa(dp2422
g2
(I132
I339
tp2423
sg4
(I133
I313
tp2424
sg6
(lp2425
I132
aI326
asg8
F0.03844259002118799
sg9
F1476531230129.456
sa(dp2426
g2
(I132
I336
tp2427
sg4
(I136
I312
tp2428
sg6
(lp2429
I134
aI324
asg8
F0.16514867741462683
sg9
F1476531230238.502
sa(dp2430
g2
(I133
I336
tp2431
sg4
(I136
I310
tp2432
sg6
(lp2433
I134
aI323
asg8
F0.11487660541689915
sg9
F1476531230366.79
sa(dp2434
g2
(I138
I339
tp2435
sg4
(I132
I313
tp2436
sg6
(lp2437
I135
aI326
asg8
F6.0563864591257
sg9
F1476531230409.7559
sa(dp2438
g2
(I139
I339
tp2439
sg4
(I133
I314
tp2440
sg6
(lp2441
I136
aI326
asg8
F6.047640326458723
sg9
F1476531230597.117
sa(dp2442
g2
(I141
I336
tp2443
sg4
(I139
I312
tp2444
sg6
(lp2445
I140
aI324
asg8
F6.200044075291145
sg9
F1476531230748.229
sa(dp2446
g2
(I142
I334
tp2447
sg4
(I144
I308
tp2448
sg6
(lp2449
I143
aI321
asg8
F0.07677189126977804
sg9
F1476531230917.048
sa(dp2450
g2
(I148
I335
tp2451
sg4
(I139
I309
tp2452
sg6
(lp2453
I143
aI322
asg8
F5.949941006067913
sg9
F1476531231103.3489
sa(dp2454
g2
(I149
I335
tp2455
sg4
(I144
I310
tp2456
sg6
(lp2457
I146
aI322
asg8
F6.085789747329706
sg9
F1476531231182.638
sa(dp2458
g2
(I147
I330
tp2459
sg4
(I147
I307
tp2460
sg6
(lp2461
I147
aI318
asg8
F3.141592653589793
sg9
F1476531231503.541
sa(dp2462
g2
(I151
I330
tp2463
sg4
(I146
I308
tp2464
sg6
(lp2465
I148
aI319
asg8
F6.059708706038953
sg9
F1476531231546.8271
sa(dp2466
g2
(I152
I333
tp2467
sg4
(I143
I311
tp2468
sg6
(lp2469
I147
aI322
asg8
F5.89486658900712
sg9
F1476531231597.922
sa(dp2470
g2
(I151
I331
tp2471
sg4
(I141
I311
tp2472
sg6
(lp2473
I146
aI321
asg8
F5.81953769817878
sg9
F1476531231650.547
sa(dp2474
g2
(I147
I330
tp2475
sg4
(I142
I311
tp2476
sg6
(lp2477
I144
aI320
asg8
F6.025861592208497
sg9
F1476531231693.755
sa(dp2478
g2
(I149
I330
tp2479
sg4
(I142
I311
tp2480
sg6
(lp2481
I145
aI320
asg8
F5.930194919352676
sg9
F1476531231782.46
sa(dp2482
g2
(I153
I333
tp2483
sg4
(I141
I313
tp2484
sg6
(lp2485
I147
aI323
asg8
F5.742765806909002
sg9
F1476531231857.03
sa(dp2486
g2
(I152
I332
tp2487
sg4
(I145
I312
tp2488
sg6
(lp2489
I148
aI322
asg8
F5.946510487792859
sg9
F1476531231936.397
sa(dp2490
g2
(I153
I332
tp2491
sg4
(I146
I311
tp2492
sg6
(lp2493
I149
aI321
asg8
F5.961434752782944
sg9
F1476531232007.4648
sa(dp2494
g2
(I151
I330
tp2495
sg4
(I146
I309
tp2496
sg6
(lp2497
I148
aI319
asg8
F6.049442126310685
sg9
F1476531232179.7122
sa(dp2498
g2
(I151
I330
tp2499
sg4
(I147
I307
tp2500
sg6
(lp2501
I149
aI318
asg8
F6.110994492656647
sg9
F1476531232275.816
sa(dp2502
g2
(I153
I334
tp2503
sg4
(I147
I310
tp2504
sg6
(lp2505
I150
aI322
asg8
F6.038206644052722
sg9
F1476531232442.868
sa(dp2506
g2
(I152
I333
tp2507
sg4
(I141
I309
tp2508
sg6
(lp2509
I146
aI321
asg8
F5.853423028082898
sg9
F1476531232560.09
sa(dp2510
g2
(I150
I330
tp2511
sg4
(I148
I307
tp2512
sg6
(lp2513
I149
aI318
asg8
F6.196446968503601
sg9
F1476531232708.136
sa(dp2514
g2
(I154
I330
tp2515
sg4
(I142
I308
tp2516
sg6
(lp2517
I148
aI319
asg8
F5.783838585499456
sg9
F1476531232834.976
sa(dp2518
g2
(I157
I330
tp2519
sg4
(I143
I312
tp2520
sg6
(lp2521
I150
aI321
asg8
F5.6221421383289
sg9
F1476531232971.597
sa(dp2522
g2
(I156
I326
tp2523
sg4
(I148
I310
tp2524
sg6
(lp2525
I152
aI318
asg8
F5.81953769817878
sg9
F1476531233089.164
sa(dp2526
g2
(I153
I322
tp2527
sg4
(I146
I305
tp2528
sg6
(lp2529
I149
aI313
asg8
F5.8925782634819
sg9
F1476531233198.81
sa(dp2530
g2
(I160
I321
tp2531
sg4
(I145
I303
tp2532
sg6
(lp2533
I152
aI312
asg8
F5.588447030982883
sg9
F1476531233263.288
sa(dp2534
g2
(I161
I321
tp2535
sg4
(I145
I303
tp2536
sg6
(lp2537
I153
aI312
asg8
F5.556542966497861
sg9
F1476531233340.188
sa(dp2538
g2
(I162
I320
tp2539
sg4
(I145
I303
tp2540
sg6
(lp2541
I153
aI311
asg8
F5.497787143782138
sg9
F1476531233409.179
sa(dp2542
g2
(I162
I318
tp2543
sg4
(I150
I302
tp2544
sg6
(lp2545
I156
aI310
asg8
F5.639684198386302
sg9
F1476531233571.3242
sa(dp2546
g2
(I160
I313
tp2547
sg4
(I154
I296
tp2548
sg6
(lp2549
I157
aI304
asg8
F5.943892692725542
sg9
F1476531233722.897
sa(dp2550
g2
(I166
I312
tp2551
sg4
(I154
I294
tp2552
sg6
(lp2553
I160
aI303
asg8
F5.695182703632018
sg9
F1476531233819.9028
sa(dp2554
g2
(I165
I307
tp2555
sg4
(I162
I292
tp2556
sg6
(lp2557
I163
aI299
asg8
F6.085789747329706
sg9
F1476531234114.202
sa(dp2558
g2
(I172
I305
tp2559
sg4
(I161
I292
tp2560
sg6
(lp2561
I166
aI298
asg8
F5.580928375670579
sg9
F1476531234390.254
sa(dp2562
g2
(I168
I296
tp2563
sg4
(I145
I311
tp2564
sg6
(lp2565
I156
aI303
asg8
F4.134487043422444
sg9
F1476531235697.1182
sa(dp2566
g2
(I172
I293
tp2567
sg4
(I145
I312
tp2568
sg6
(lp2569
I158
aI302
asg8
F4.099181631510181
sg9
F1476531235832.4102
sa(dp2570
g2
(I165
I293
tp2571
sg4
(I146
I313
tp2572
sg6
(lp2573
I155
aI303
asg8
F3.901355408465564
sg9
F1476531236106.059
sa(dp2574
g2
(I168
I291
tp2575
sg4
(I143
I311
tp2576
sg6
(lp2577
I155
aI301
asg8
F4.037648038161137
sg9
F1476531236239.824
sa(dp2578
g2
(I171
I289
tp2579
sg4
(I144
I310
tp2580
sg6
(lp2581
I157
aI299
asg8
F4.051345811534003
sg9
F1476531236359.834
sa(dp2582
g2
(I170
I292
tp2583
sg4
(I143
I307
tp2584
sg6
(lp2585
I156
aI299
asg8
F4.205290475992353
sg9
F1476531236472.237
sa(dp2586
g2
(I164
I293
tp2587
sg4
(I143
I308
tp2588
sg6
(lp2589
I153
aI300
asg8
F4.092139494401868
sg9
F1476531236535.367
sa(dp2590
g2
(I171
I305
tp2591
sg4
(I159
I289
tp2592
sg6
(lp2593
I165
aI297
asg8
F5.639684198386302
sg9
F1476531237975.092
sa(dp2594
g2
(I167
I304
tp2595
sg4
(I159
I286
tp2596
sg6
(lp2597
I163
aI295
asg8
F5.864960977600357
sg9
F1476531238070.3198
sa(dp2598
g2
(I170
I305
tp2599
sg4
(I164
I285
tp2600
sg6
(lp2601
I167
aI295
asg8
F5.9917285127017195
sg9
F1476531238221.573
sa(dp2602
g2
(I173
I309
tp2603
sg4
(I164
I287
tp2604
sg6
(lp2605
I168
aI298
asg8
F5.89486658900712
sg9
F1476531238356.031
sa(dp2606
g2
(I170
I309
tp2607
sg4
(I164
I286
tp2608
sg6
(lp2609
I167
aI297
asg8
F6.028002916558767
sg9
F1476531238500.945
sa(dp2610
g2
(I168
I306
tp2611
sg4
(I168
I284
tp2612
sg6
(lp2613
I168
aI295
asg8
F3.141592653589793
sg9
F1476531238618.679
sa(dp2614
g2
(I170
I309
tp2615
sg4
(I170
I284
tp2616
sg6
(lp2617
I170
aI296
asg8
F3.141592653589793
sg9
F1476531238772.877
sa(dp2618
g2
(I171
I312
tp2619
sg4
(I167
I287
tp2620
sg6
(lp2621
I169
aI299
asg8
F6.124530044993185
sg9
F1476531238879.2378
sa(dp2622
g2
(I167
I310
tp2623
sg4
(I171
I286
tp2624
sg6
(lp2625
I169
aI298
asg8
F0.16514867741462683
sg9
F1476531239008.341
sa(dp2626
g2
(I166
I309
tp2627
sg4
(I174
I284
tp2628
sg6
(lp2629
I170
aI296
asg8
F0.3097029445424562
sg9
F1476531239174.339
sa(dp2630
g2
(I165
I312
tp2631
sg4
(I174
I286
tp2632
sg6
(lp2633
I169
aI299
asg8
F0.3332443011116727
sg9
F1476531239291.906
sa(dp2634
g2
(I164
I313
tp2635
sg4
(I166
I287
tp2636
sg6
(lp2637
I165
aI300
asg8
F0.07677189126977804
sg9
F1476531239413.127
sa(dp2638
g2
(I162
I311
tp2639
sg4
(I171
I287
tp2640
sg6
(lp2641
I166
aI299
asg8
F0.35877067027057225
sg9
F1476531239548.558
sa(dp2642
g2
(I162
I310
tp2643
sg4
(I171
I285
tp2644
sg6
(lp2645
I166
aI297
asg8
F0.34555558058171215
sg9
F1476531239671.146
sa(dp2646
g2
(I166
I313
tp2647
sg4
(I166
I287
tp2648
sg6
(lp2649
I166
aI300
asg8
F3.141592653589793
sg9
F1476531239748.9531
sa(dp2650
g2
(I167
I313
tp2651
sg4
(I167
I289
tp2652
sg6
(lp2653
I167
aI301
asg8
F3.141592653589793
sg9
F1476531239914.009
sa(dp2654
g2
(I169
I310
tp2655
sg4
(I173
I285
tp2656
sg6
(lp2657
I171
aI297
asg8
F0.1586552621864014
sg9
F1476531240035.203
sa(dp2658
g2
(I168
I309
tp2659
sg4
(I176
I283
tp2660
sg6
(lp2661
I172
aI296
asg8
F0.2984989315861793
sg9
F1476531240183.906
sa(dp2662
g2
(I176
I312
tp2663
sg4
(I172
I285
tp2664
sg6
(lp2665
I174
aI298
asg8
F6.1361069517911835
sg9
F1476531240323.7368
sa(dp2666
g2
(I177
I312
tp2667
sg4
(I175
I288
tp2668
sg6
(lp2669
I176
aI300
asg8
F6.200044075291145
sg9
F1476531240406.969
sa(dp2670
g2
(I178
I308
tp2671
sg4
(I183
I281
tp2672
sg6
(lp2673
I180
aI294
asg8
F0.18311081726248413
sg9
F1476531240569.278
sa(dp2674
g2
(I182
I308
tp2675
sg4
(I184
I282
tp2676
sg6
(lp2677
I183
aI295
asg8
F0.07677189126977804
sg9
F1476531240697.891
sa(dp2678
g2
(I186
I311
tp2679
sg4
(I183
I285
tp2680
sg6
(lp2681
I184
aI298
asg8
F6.168308701762687
sg9
F1476531240824.38
sa(dp2682
g2
(I187
I308
tp2683
sg4
(I185
I283
tp2684
sg6
(lp2685
I186
aI295
asg8
F6.203355321467349
sg9
F1476531240922.899
sa(dp2686
g2
(I185
I305
tp2687
sg4
(I185
I281
tp2688
sg6
(lp2689
I185
aI293
asg8
F3.141592653589793
sg9
F1476531241005.905
sa(dp2690
g2
(I187
I306
tp2691
sg4
(I185
I283
tp2692
sg6
(lp2693
I186
aI294
asg8
F6.196446968503601
sg9
F1476531241078.076
sa(dp2694
g2
(I189
I307
tp2695
sg4
(I183
I285
tp2696
sg6
(lp2697
I186
aI296
asg8
F6.0169332580286605
sg9
F1476531241199.582
sa(dp2698
g2
(I191
I308
tp2699
sg4
(I180
I286
tp2700
sg6
(lp2701
I185
aI297
asg8
F5.81953769817878
sg9
F1476531241376.356
sa(dp2702
g2
(I187
I304
tp2703
sg4
(I183
I284
tp2704
sg6
(lp2705
I185
aI294
asg8
F6.085789747329706
sg9
F1476531241487.862
sa(dp2706
g2
(I188
I303
tp2707
sg4
(I181
I283
tp2708
sg6
(lp2709
I184
aI293
asg8
F5.946510487792859
sg9
F1476531241621.377
sa(dp2710
g2
(I192
I304
tp2711
sg4
(I180
I287
tp2712
sg6
(lp2713
I186
aI295
asg8
F5.668522355257421
sg9
F1476531241777.128
sa(dp2714
g2
(I193
I302
tp2715
sg4
(I182
I286
tp2716
sg6
(lp2717
I187
aI294
asg8
F5.680897961044622
sg9
F1476531241901.228
sa(dp2718
g2
(I188
I298
tp2719
sg4
(I186
I284
tp2720
sg6
(lp2721
I187
aI291
asg8
F6.141288252575422
sg9
F1476531242019.8828
sa(dp2722
g2
(I193
I298
tp2723
sg4
(I182
I282
tp2724
sg6
(lp2725
I187
aI290
asg8
F5.680897961044622
sg9
F1476531242150.755
sa(dp2726
g2
(I194
I293
tp2727
sg4
(I190
I280
tp2728
sg6
(lp2729
I192
aI286
asg8
F5.984686375593407
sg9
F1476531242695.124
sa(dp2730
g2
(I196
I294
tp2731
sg4
(I190
I281
tp2732
sg6
(lp2733
I193
aI287
asg8
F5.850777531609048
sg9
F1476531242834.047
sa.