(lp0
(dp1
S'Right_centre'
p2
(I562
I328
tp3
sS'Left_centre'
p4
(I559
I305
tp5
sS'Location'
p6
(lp7
I752
aI512
asS'Time'
p8
F1476884422812.87
sS'Ball_centre'
p9
NsS'Heading'
p10
F3.011890116433881
sa(dp11
g2
(I563
I327
tp12
sg4
(I559
I304
tp13
sg6
(lp14
I753
aI511
asg8
F1476884423058.929
sg9
Nsg10
F2.969401839066854
sa(dp15
g2
(I562
I328
tp16
sg4
(I559
I304
tp17
sg6
(lp18
I752
aI512
asg8
F1476884423257.783
sg9
Nsg10
F3.017237659043032
sa(dp19
g2
(I562
I328
tp20
sg4
(I559
I304
tp21
sg6
(lp22
I752
aI512
asg8
F1476884423414.157
sg9
Nsg10
F3.017237659043032
sa(dp23
g2
(I562
I328
tp24
sg4
(I559
I304
tp25
sg6
(lp26
I752
aI512
asg8
F1476884423548.8801
sg9
Nsg10
F3.017237659043032
sa(dp27
g2
(I562
I328
tp28
sg4
(I559
I305
tp29
sg6
(lp30
I752
aI512
asg8
F1476884423658.064
sg9
Nsg10
F3.011890116433881
sa(dp31
g2
(I562
I327
tp32
sg4
(I559
I305
tp33
sg6
(lp34
I752
aI512
asg8
F1476884423823.111
sg9
Nsg10
F3.0060649396042924
sa(dp35
g2
(I563
I328
tp36
sg4
(I559
I305
tp37
sg6
(lp38
I753
aI512
asg8
F1476884423947.945
sg9
Nsg10
F2.969401839066854
sa(dp39
g2
(I562
I328
tp40
sg4
(I559
I305
tp41
sg6
(lp42
I752
aI512
asg8
F1476884424056.535
sg9
Nsg10
F3.011890116433881
sa(dp43
g2
(I562
I328
tp44
sg4
(I559
I305
tp45
sg6
(lp46
I752
aI512
asg8
F1476884424197.4622
sg9
Nsg10
F3.011890116433881
sa(dp47
g2
(I562
I328
tp48
sg4
(I559
I305
tp49
sg6
(lp50
I752
aI512
asg8
F1476884424353.424
sg9
Nsg10
F3.011890116433881
sa(dp51
g2
(I562
I328
tp52
sg4
(I559
I305
tp53
sg6
(lp54
I752
aI512
asg8
F1476884424461.946
sg9
Nsg10
F3.011890116433881
sa(dp55
g2
(I562
I328
tp56
sg4
(I559
I305
tp57
sg6
(lp58
I752
aI512
asg8
F1476884424619.427
sg9
Nsg10
F3.011890116433881
sa(dp59
g2
(I562
I327
tp60
sg4
(I559
I305
tp61
sg6
(lp62
I752
aI512
asg8
F1476884424781.906
sg9
Nsg10
F3.0060649396042924
sa(dp63
g2
(I562
I328
tp64
sg4
(I559
I304
tp65
sg6
(lp66
I752
aI512
asg8
F1476884424959.848
sg9
Nsg10
F3.017237659043032
sa(dp67
g2
(I562
I328
tp68
sg4
(I559
I304
tp69
sg6
(lp70
I752
aI512
asg8
F1476884425106.6848
sg9
Nsg10
F3.017237659043032
sa(dp71
g2
(I562
I328
tp72
sg4
(I559
I304
tp73
sg6
(lp74
I752
aI512
asg8
F1476884425267.793
sg9
Nsg10
F3.017237659043032
sa(dp75
g2
(I562
I328
tp76
sg4
(I559
I304
tp77
sg6
(lp78
I752
aI512
asg8
F1476884425379.467
sg9
Nsg10
F3.017237659043032
sa(dp79
g2
(I562
I328
tp80
sg4
(I559
I304
tp81
sg6
(lp82
I752
aI512
asg8
F1476884425548.313
sg9
Nsg10
F3.017237659043032
sa(dp83
g2
(I562
I328
tp84
sg4
(I559
I304
tp85
sg6
(lp86
I752
aI512
asg8
F1476884425689.418
sg9
Nsg10
F3.017237659043032
sa(dp87
g2
(I562
I328
tp88
sg4
(I559
I304
tp89
sg6
(lp90
I752
aI512
asg8
F1476884425845.87
sg9
Nsg10
F3.017237659043032
sa(dp91
g2
(I563
I328
tp92
sg4
(I559
I304
tp93
sg6
(lp94
I753
aI512
asg8
F1476884426024.645
sg9
Nsg10
F2.976443976175166
sa(dp95
g2
(I562
I328
tp96
sg4
(I559
I304
tp97
sg6
(lp98
I752
aI512
asg8
F1476884426239.4258
sg9
Nsg10
F3.017237659043032
sa(dp99
g2
(I562
I328
tp100
sg4
(I559
I304
tp101
sg6
(lp102
I752
aI512
asg8
F1476884426394.022
sg9
Nsg10
F3.017237659043032
sa(dp103
g2
(I563
I327
tp104
sg4
(I559
I304
tp105
sg6
(lp106
I753
aI511
asg8
F1476884426555.561
sg9
Nsg10
F2.969401839066854
sa(dp107
g2
(I563
I328
tp108
sg4
(I559
I305
tp109
sg6
(lp110
I753
aI512
asg8
F1476884426768.9421
sg9
Nsg10
F2.969401839066854
sa(dp111
g2
(I562
I328
tp112
sg4
(I559
I305
tp113
sg6
(lp114
I752
aI512
asg8
F1476884427003.029
sg9
Nsg10
F3.011890116433881
sa(dp115
g2
(I562
I328
tp116
sg4
(I559
I304
tp117
sg6
(lp118
I752
aI512
asg8
F1476884427159.397
sg9
Nsg10
F3.017237659043032
sa(dp119
g2
(I562
I328
tp120
sg4
(I559
I304
tp121
sg6
(lp122
I752
aI512
asg8
F1476884427373.207
sg9
Nsg10
F3.017237659043032
sa(dp123
g2
(I563
I328
tp124
sg4
(I559
I305
tp125
sg6
(lp126
I753
aI512
asg8
F1476884427549.341
sg9
Nsg10
F2.969401839066854
sa(dp127
g2
(I562
I328
tp128
sg4
(I560
I305
tp129
sg6
(lp130
I753
aI512
asg8
F1476884427688.161
sg9
Nsg10
F3.054854314913808
sa(dp131
g2
(I562
I328
tp132
sg4
(I559
I304
tp133
sg6
(lp134
I752
aI512
asg8
F1476884427837.451
sg9
Nsg10
F3.017237659043032
sa(dp135
g2
(I562
I328
tp136
sg4
(I559
I305
tp137
sg6
(lp138
I752
aI512
asg8
F1476884428010.479
sg9
Nsg10
F3.011890116433881
sa(dp139
g2
(I562
I328
tp140
sg4
(I559
I304
tp141
sg6
(lp142
I752
aI512
asg8
F1476884428178.163
sg9
Nsg10
F3.017237659043032
sa(dp143
g2
(I562
I328
tp144
sg4
(I559
I305
tp145
sg6
(lp146
I752
aI512
asg8
F1476884428347.8
sg9
Nsg10
F3.011890116433881
sa(dp147
g2
(I562
I328
tp148
sg4
(I559
I304
tp149
sg6
(lp150
I752
aI512
asg8
F1476884428496.327
sg9
Nsg10
F3.017237659043032
sa(dp151
g2
(I562
I328
tp152
sg4
(I559
I304
tp153
sg6
(lp154
I752
aI512
asg8
F1476884428629.969
sg9
Nsg10
F3.017237659043032
sa(dp155
g2
(I562
I328
tp156
sg4
(I559
I305
tp157
sg6
(lp158
I752
aI512
asg8
F1476884428764.918
sg9
Nsg10
F3.011890116433881
sa(dp159
g2
(I562
I328
tp160
sg4
(I559
I304
tp161
sg6
(lp162
I752
aI512
asg8
F1476884428919.312
sg9
Nsg10
F3.017237659043032
sa(dp163
g2
(I562
I328
tp164
sg4
(I559
I305
tp165
sg6
(lp166
I752
aI512
asg8
F1476884429076.169
sg9
Nsg10
F3.011890116433881
sa(dp167
g2
(I561
I328
tp168
sg4
(I559
I304
tp169
sg6
(lp170
I752
aI512
asg8
F1476884429237.833
sg9
Nsg10
F3.058451421701352
sa(dp171
g2
(I562
I328
tp172
sg4
(I559
I305
tp173
sg6
(lp174
I752
aI512
asg8
F1476884429370.2449
sg9
Nsg10
F3.011890116433881
sa(dp175
g2
(I562
I328
tp176
sg4
(I559
I304
tp177
sg6
(lp178
I752
aI512
asg8
F1476884429506.8892
sg9
Nsg10
F3.017237659043032
sa(dp179
g2
(I562
I328
tp180
sg4
(I559
I304
tp181
sg6
(lp182
I752
aI512
asg8
F1476884429649.962
sg9
Nsg10
F3.017237659043032
sa(dp183
g2
(I562
I328
tp184
sg4
(I559
I305
tp185
sg6
(lp186
I752
aI512
asg8
F1476884429864.838
sg9
Nsg10
F3.011890116433881
sa(dp187
g2
(I562
I328
tp188
sg4
(I559
I304
tp189
sg6
(lp190
I752
aI512
asg8
F1476884430023.294
sg9
Nsg10
F3.017237659043032
sa(dp191
g2
(I562
I328
tp192
sg4
(I559
I304
tp193
sg6
(lp194
I752
aI512
asg8
F1476884430182.46
sg9
Nsg10
F3.017237659043032
sa(dp195
g2
(I562
I328
tp196
sg4
(I559
I305
tp197
sg6
(lp198
I752
aI512
asg8
F1476884430374.1099
sg9
Nsg10
F3.011890116433881
sa(dp199
g2
(I562
I328
tp200
sg4
(I559
I304
tp201
sg6
(lp202
I752
aI512
asg8
F1476884430495.897
sg9
Nsg10
F3.017237659043032
sa(dp203
g2
(I562
I328
tp204
sg4
(I559
I304
tp205
sg6
(lp206
I752
aI512
asg8
F1476884430625.412
sg9
Nsg10
F3.017237659043032
sa(dp207
g2
(I562
I328
tp208
sg4
(I559
I305
tp209
sg6
(lp210
I752
aI512
asg8
F1476884430814.1028
sg9
Nsg10
F3.011890116433881
sa(dp211
g2
(I563
I327
tp212
sg4
(I559
I304
tp213
sg6
(lp214
I753
aI511
asg8
F1476884430984.114
sg9
Nsg10
F2.969401839066854
sa(dp215
g2
(I562
I328
tp216
sg4
(I559
I304
tp217
sg6
(lp218
I752
aI512
asg8
F1476884431196.433
sg9
Nsg10
F3.017237659043032
sa(dp219
g2
(I562
I328
tp220
sg4
(I559
I305
tp221
sg6
(lp222
I752
aI512
asg8
F1476884431361.127
sg9
Nsg10
F3.011890116433881
sa(dp223
g2
(I562
I328
tp224
sg4
(I559
I304
tp225
sg6
(lp226
I752
aI512
asg8
F1476884431544.209
sg9
Nsg10
F3.017237659043032
sa(dp227
g2
(I562
I328
tp228
sg4
(I559
I305
tp229
sg6
(lp230
I752
aI512
asg8
F1476884431750.78
sg9
Nsg10
F3.011890116433881
sa(dp231
g2
(I562
I328
tp232
sg4
(I559
I304
tp233
sg6
(lp234
I752
aI512
asg8
F1476884431959.668
sg9
Nsg10
F3.017237659043032
sa(dp235
g2
(I562
I328
tp236
sg4
(I559
I305
tp237
sg6
(lp238
I752
aI512
asg8
F1476884432182.6501
sg9
Nsg10
F3.011890116433881
sa(dp239
g2
(I562
I328
tp240
sg4
(I559
I304
tp241
sg6
(lp242
I752
aI512
asg8
F1476884432427.714
sg9
Nsg10
F3.017237659043032
sa(dp243
g2
(I562
I328
tp244
sg4
(I559
I305
tp245
sg6
(lp246
I752
aI512
asg8
F1476884432616.616
sg9
Nsg10
F3.011890116433881
sa(dp247
g2
(I562
I329
tp248
sg4
(I559
I304
tp249
sg6
(lp250
I752
aI512
asg8
F1476884432804.468
sg9
Nsg10
F3.0221637275714546
sa(dp251
g2
(I562
I328
tp252
sg4
(I559
I305
tp253
sg6
(lp254
I752
aI512
asg8
F1476884433007.852
sg9
Nsg10
F3.011890116433881
sa(dp255
g2
(I562
I328
tp256
sg4
(I559
I304
tp257
sg6
(lp258
I752
aI512
asg8
F1476884433216.1519
sg9
Nsg10
F3.017237659043032
sa(dp259
g2
(I562
I328
tp260
sg4
(I559
I305
tp261
sg6
(lp262
I752
aI512
asg8
F1476884433423.073
sg9
Nsg10
F3.011890116433881
sa(dp263
g2
(I562
I329
tp264
sg4
(I559
I304
tp265
sg6
(lp266
I752
aI512
asg8
F1476884433582.8481
sg9
Nsg10
F3.0221637275714546
sa(dp267
g2
(I562
I328
tp268
sg4
(I559
I304
tp269
sg6
(lp270
I752
aI512
asg8
F1476884433734.7642
sg9
Nsg10
F3.017237659043032
sa(dp271
g2
(I562
I327
tp272
sg4
(I559
I304
tp273
sg6
(lp274
I752
aI511
asg8
F1476884433874.4421
sg9
Nsg10
F3.011890116433881
sa(dp275
g2
(I562
I328
tp276
sg4
(I559
I305
tp277
sg6
(lp278
I752
aI512
asg8
F1476884434038.4841
sg9
Nsg10
F3.011890116433881
sa(dp279
g2
(I563
I328
tp280
sg4
(I559
I305
tp281
sg6
(lp282
I753
aI512
asg8
F1476884434188.088
sg9
Nsg10
F2.969401839066854
sa(dp283
g2
(I562
I328
tp284
sg4
(I542
I327
tp285
sg6
(lp286
I744
aI523
asg8
F1476884434352.931
sg9
Nsg10
F1.6207547225168393
sa(dp287
g2
(I562
I328
tp288
sg4
(I542
I327
tp289
sg6
(lp290
I744
aI523
asg8
F1476884434544.152
sg9
Nsg10
F1.6207547225168393
sa(dp291
g2
(I553
I329
tp292
sg4
(I551
I304
tp293
sg6
(lp294
I744
aI512
asg8
F1476884452836.484
sg9
Nsg10
F3.061762667877556
sa(dp295
g2
(I552
I328
tp296
sg4
(I549
I304
tp297
sg6
(lp298
I742
aI512
asg8
F1476884452990.797
sg9
Nsg10
F3.017237659043032
sa(dp299
g2
(I552
I329
tp300
sg4
(I548
I304
tp301
sg6
(lp302
I742
aI512
asg8
F1476884453181.066
sg9
Nsg10
F2.9829373914033916
sa(dp303
g2
(I550
I329
tp304
sg4
(I547
I304
tp305
sg6
(lp306
I740
aI512
asg8
F1476884453357.3289
sg9
Nsg10
F3.0221637275714546
sa(dp307
g2
(I550
I328
tp308
sg4
(I547
I304
tp309
sg6
(lp310
I740
aI512
asg8
F1476884453523.747
sg9
Nsg10
F3.017237659043032
sa(dp311
g2
(I551
I329
tp312
sg4
(I547
I304
tp313
sg6
(lp314
I741
aI512
asg8
F1476884453719.0571
sg9
Nsg10
F2.9829373914033916
sa(dp315
g2
(I551
I328
tp316
sg4
(I548
I304
tp317
sg6
(lp318
I741
aI512
asg8
F1476884453920.227
sg9
Nsg10
F3.017237659043032
sa(dp319
g2
(I550
I328
tp320
sg4
(I548
I304
tp321
sg6
(lp322
I741
aI512
asg8
F1476884454112.9229
sg9
Nsg10
F3.058451421701352
sa(dp323
g2
(I550
I328
tp324
sg4
(I547
I304
tp325
sg6
(lp326
I740
aI512
asg8
F1476884454331.979
sg9
Nsg10
F3.017237659043032
sa(dp327
g2
(I550
I329
tp328
sg4
(I547
I304
tp329
sg6
(lp330
I740
aI512
asg8
F1476884454525.7139
sg9
Nsg10
F3.0221637275714546
sa(dp331
g2
(I552
I328
tp332
sg4
(I549
I304
tp333
sg6
(lp334
I742
aI512
asg8
F1476884454697.804
sg9
Nsg10
F3.017237659043032
sa(dp335
g2
(I551
I329
tp336
sg4
(I549
I304
tp337
sg6
(lp338
I742
aI512
asg8
F1476884454965.166
sg9
Nsg10
F3.061762667877556
sa(dp339
g2
(I551
I328
tp340
sg4
(I550
I303
tp341
sg6
(lp342
I742
aI511
asg8
F1476884455180.35
sg9
Nsg10
F3.1016139664665032
sa(dp343
g2
(I553
I329
tp344
sg4
(I550
I304
tp345
sg6
(lp346
I743
aI512
asg8
F1476884455411.261
sg9
Nsg10
F3.0221637275714546
sa(dp347
g2
(I550
I333
tp348
sg4
(I547
I308
tp349
sg6
(lp350
I740
aI516
asg8
F1476884455617.1729
sg9
Nsg10
F3.0221637275714546
sa(dp351
g2
(I542
I327
tp352
sg4
(I542
I302
tp353
sg6
(lp354
I734
aI510
asg8
F1476884455783.8408
sg9
Nsg10
F3.141592653589793
sa(dp355
g2
(I537
I330
tp356
sg4
(I537
I306
tp357
sg6
(lp358
I729
aI514
asg8
F1476884455937.601
sg9
Nsg10
F3.141592653589793
sa(dp359
g2
(I533
I329
tp360
sg4
(I536
I304
tp361
sg6
(lp362
I726
aI512
asg8
F1476884456114.5981
sg9
Nsg10
F3.2610215796081317
sa(dp363
g2
(I531
I328
tp364
sg4
(I534
I302
tp365
sg6
(lp366
I724
aI511
asg8
F1476884456296.2551
sg9
Nsg10
F3.256469259006692
sa(dp367
g2
(I524
I328
tp368
sg4
(I528
I304
tp369
sg6
(lp370
I718
aI512
asg8
F1476884456461.007
sg9
Nsg10
F3.30674133100442
sa(dp371
g2
(I516
I326
tp372
sg4
(I521
I301
tp373
sg6
(lp374
I710
aI509
asg8
F1476884456610.17
sg9
Nsg10
F3.338988213439674
sa(dp375
g2
(I512
I327
tp376
sg4
(I516
I303
tp377
sg6
(lp378
I706
aI511
asg8
F1476884456854.22
sg9
Nsg10
F3.30674133100442
sa(dp379
g2
(I509
I323
tp380
sg4
(I514
I299
tp381
sg6
(lp382
I703
aI507
asg8
F1476884457057.08
sg9
Nsg10
F3.3469880427795604
sa(dp383
g2
(I504
I323
tp384
sg4
(I508
I301
tp385
sg6
(lp386
I698
aI508
asg8
F1476884457227.0579
sg9
Nsg10
F3.3214461533822712
sa(dp387
g2
(I504
I325
tp388
sg4
(I507
I301
tp389
sg6
(lp390
I697
aI509
asg8
F1476884457437.233
sg9
Nsg10
F3.2659476481365544
sa(dp391
g2
(I498
I321
tp392
sg4
(I502
I296
tp393
sg6
(lp394
I692
aI504
asg8
F1476884457591.1729
sg9
Nsg10
F3.3002479157761946
sa(dp395
g2
(I495
I322
tp396
sg4
(I497
I298
tp397
sg6
(lp398
I688
aI506
asg8
F1476884457739.816
sg9
Nsg10
F3.2247338854782344
sa(dp399
g2
(I492
I321
tp400
sg4
(I496
I296
tp401
sg6
(lp402
I686
aI504
asg8
F1476884457878.9521
sg9
Nsg10
F3.3002479157761946
sa(dp403
g2
(I488
I318
tp404
sg4
(I493
I294
tp405
sg6
(lp406
I682
aI502
asg8
F1476884458028.627
sg9
Nsg10
F3.3469880427795604
sa(dp407
g2
(I482
I320
tp408
sg4
(I484
I297
tp409
sg6
(lp410
I675
aI504
asg8
F1476884458172.432
sg9
Nsg10
F3.228330992265778
sa(dp411
g2
(I480
I317
tp412
sg4
(I482
I292
tp413
sg6
(lp414
I673
aI500
asg8
F1476884458341.403
sg9
Nsg10
F3.2214226393020304
sa(dp415
g2
(I475
I319
tp416
sg4
(I475
I295
tp417
sg6
(lp418
I667
aI503
asg8
F1476884458497.3281
sg9
Nsg10
F3.141592653589793
sa(dp419
g2
(I471
I316
tp420
sg4
(I471
I291
tp421
sg6
(lp422
I663
aI499
asg8
F1476884458646.78
sg9
Nsg10
F3.141592653589793
sa(dp423
g2
(I469
I316
tp424
sg4
(I469
I292
tp425
sg6
(lp426
I661
aI500
asg8
F1476884458804.071
sg9
Nsg10
F3.141592653589793
sa(dp427
g2
(I465
I320
tp428
sg4
(I463
I296
tp429
sg6
(lp430
I656
aI504
asg8
F1476884458942.91
sg9
Nsg10
F3.058451421701352
sa(dp431
g2
(I463
I322
tp432
sg4
(I461
I296
tp433
sg6
(lp434
I654
aI505
asg8
F1476884459120.2942
sg9
Nsg10
F3.064820762320015
sa(dp435
g2
(I456
I318
tp436
sg4
(I457
I293
tp437
sg6
(lp438
I648
aI501
asg8
F1476884459289.96
sg9
Nsg10
F3.181571340713083
sa(dp439
g2
(I455
I320
tp440
sg4
(I454
I295
tp441
sg6
(lp442
I646
aI503
asg8
F1476884459485.157
sg9
Nsg10
F3.1016139664665032
sa(dp443
g2
(I453
I319
tp444
sg4
(I452
I295
tp445
sg6
(lp446
I644
aI503
asg8
F1476884459631.051
sg9
Nsg10
F3.0999500744912045
sa(dp447
g2
(I446
I316
tp448
sg4
(I449
I292
tp449
sg6
(lp450
I639
aI500
asg8
F1476884459864.038
sg9
Nsg10
F3.2659476481365544
sa(dp451
g2
(I444
I317
tp452
sg4
(I449
I293
tp453
sg6
(lp454
I638
aI501
asg8
F1476884460051.7112
sg9
Nsg10
F3.3469880427795604
sa(dp455
g2
(I441
I318
tp456
sg4
(I444
I294
tp457
sg6
(lp458
I634
aI502
asg8
F1476884460332.144
sg9
Nsg10
F3.2659476481365544
sa(dp459
g2
(I438
I316
tp460
sg4
(I443
I292
tp461
sg6
(lp462
I632
aI500
asg8
F1476884460624.6719
sg9
Nsg10
F3.3469880427795604
sa(dp463
g2
(I432
I317
tp464
sg4
(I437
I293
tp465
sg6
(lp466
I626
aI501
asg8
F1476884460899.838
sg9
Nsg10
F3.3469880427795604
sa(dp467
g2
(I430
I315
tp468
sg4
(I433
I291
tp469
sg6
(lp470
I623
aI499
asg8
F1476884461131.46
sg9
Nsg10
F3.2659476481365544
sa(dp471
g2
(I427
I313
tp472
sg4
(I430
I288
tp473
sg6
(lp474
I620
aI496
asg8
F1476884461329.825
sg9
Nsg10
F3.2610215796081317
sa(dp475
g2
(I423
I315
tp476
sg4
(I425
I291
tp477
sg6
(lp478
I616
aI499
asg8
F1476884461485.89
sg9
Nsg10
F3.2247338854782344
sa(dp479
g2
(I422
I313
tp480
sg4
(I423
I288
tp481
sg6
(lp482
I614
aI496
asg8
F1476884461654.073
sg9
Nsg10
F3.181571340713083
sa(dp483
g2
(I421
I311
tp484
sg4
(I419
I287
tp485
sg6
(lp486
I612
aI495
asg8
F1476884461798.776
sg9
Nsg10
F3.058451421701352
sa(dp487
g2
(I422
I311
tp488
sg4
(I416
I289
tp489
sg6
(lp490
I611
aI496
asg8
F1476884461954.293
sg9
Nsg10
F2.875340604438868
sa(dp491
g2
(I424
I313
tp492
sg4
(I413
I290
tp493
sg6
(lp494
I610
aI497
asg8
F1476884462123.971
sg9
Nsg10
F2.6954871046463893
sa(dp495
g2
(I421
I310
tp496
sg4
(I410
I289
tp497
sg6
(lp498
I607
aI495
asg8
F1476884462274.96
sg9
Nsg10
F2.659079358567316
sa(dp499
g2
(I419
I315
tp500
sg4
(I406
I295
tp501
sg6
(lp502
I604
aI501
asg8
F1476884462429.055
sg9
Nsg10
F2.5652174329986095
sa(dp503
g2
(I417
I318
tp504
sg4
(I401
I298
tp505
sg6
(lp506
I601
aI504
asg8
F1476884462568.0808
sg9
Nsg10
F2.4668517113662403
sa(dp507
g2
(I409
I318
tp508
sg4
(I397
I299
tp509
sg6
(lp510
I595
aI504
asg8
F1476884462713.812
sg9
Nsg10
F2.578276392097825
sa(dp511
g2
(I410
I321
tp512
sg4
(I395
I302
tp513
sg6
(lp514
I594
aI507
asg8
F1476884462995.134
sg9
Nsg10
F2.473303234759209
sa(dp515
g2
(I406
I322
tp516
sg4
(I393
I303
tp517
sg6
(lp518
I591
aI508
asg8
F1476884463168.987
sg9
Nsg10
F2.5415424401880395
sa(dp519
g2
(I402
I322
tp520
sg4
(I390
I302
tp521
sg6
(lp522
I588
aI508
asg8
F1476884463385.672
sg9
Nsg10
F2.601173153319209
sa(dp523
g2
(I400
I326
tp524
sg4
(I389
I305
tp525
sg6
(lp526
I586
aI511
asg8
F1476884463579.264
sg9
Nsg10
F2.659079358567316
sa(dp527
g2
(I398
I329
tp528
sg4
(I386
I307
tp529
sg6
(lp530
I584
aI514
asg8
F1476884463755.949
sg9
Nsg10
F2.642245931909663
sa(dp531
g2
(I392
I328
tp532
sg4
(I383
I307
tp533
sg6
(lp534
I579
aI513
asg8
F1476884463892.617
sg9
Nsg10
F2.7367008673047097
sa(dp535
g2
(I390
I331
tp536
sg4
(I382
I309
tp537
sg6
(lp538
I578
aI516
asg8
F1476884464073.134
sg9
Nsg10
F2.792821650005886
sa(dp539
g2
(I388
I333
tp540
sg4
(I378
I312
tp541
sg6
(lp542
I575
aI518
asg8
F1476884464257.053
sg9
Nsg10
F2.697173443688694
sa(dp543
g2
(I381
I337
tp544
sg4
(I373
I314
tp545
sg6
(lp546
I569
aI521
asg8
F1476884464405.1052
sg9
Nsg10
F2.8068558162729786
sa(dp547
g2
(I379
I340
tp548
sg4
(I368
I318
tp549
sg6
(lp550
I565
aI525
asg8
F1476884464594.328
sg9
Nsg10
F2.677945044588987
sa(dp551
g2
(I374
I338
tp552
sg4
(I364
I316
tp553
sg6
(lp554
I561
aI523
asg8
F1476884464771.331
sg9
Nsg10
F2.714965160462917
sa(dp555
g2
(I371
I343
tp556
sg4
(I361
I321
tp557
sg6
(lp558
I558
aI528
asg8
F1476884464937.0789
sg9
Nsg10
F2.714965160462917
sa(dp559
g2
(I369
I343
tp560
sg4
(I359
I321
tp561
sg6
(lp562
I556
aI528
asg8
F1476884465134.5278
sg9
Nsg10
F2.714965160462917
sa(dp563
g2
(I363
I342
tp564
sg4
(I356
I320
tp565
sg6
(lp566
I551
aI527
asg8
F1476884465284.9531
sg9
Nsg10
F2.833539872566017
sa(dp567
g2
(I363
I347
tp568
sg4
(I351
I325
tp569
sg6
(lp570
I549
aI532
asg8
F1476884465413.486
sg9
Nsg10
F2.642245931909663
sa(dp571
g2
(I357
I346
tp572
sg4
(I348
I325
tp573
sg6
(lp574
I544
aI531
asg8
F1476884465555.605
sg9
Nsg10
F2.7367008673047097
sa(dp575
g2
(I352
I347
tp576
sg4
(I343
I326
tp577
sg6
(lp578
I539
aI532
asg8
F1476884465687.202
sg9
Nsg10
F2.7367008673047097
sa(dp579
g2
(I348
I351
tp580
sg4
(I339
I329
tp581
sg6
(lp582
I535
aI536
asg8
F1476884465874.71
sg9
Nsg10
F2.7532739354173272
sa(dp583
g2
(I344
I350
tp584
sg4
(I335
I328
tp585
sg6
(lp586
I531
aI535
asg8
F1476884466035.829
sg9
Nsg10
F2.7532739354173272
sa(dp587
g2
(I341
I353
tp588
sg4
(I334
I331
tp589
sg6
(lp590
I529
aI538
asg8
F1476884466181.977
sg9
Nsg10
F2.833539872566017
sa(dp591
g2
(I338
I356
tp592
sg4
(I329
I334
tp593
sg6
(lp594
I525
aI541
asg8
F1476884466385.0652
sg9
Nsg10
F2.7532739354173272
sa(dp595
g2
(I336
I355
tp596
sg4
(I326
I334
tp597
sg6
(lp598
I523
aI540
asg8
F1476884466518.224
sg9
Nsg10
F2.697173443688694
sa(dp599
g2
(I332
I357
tp600
sg4
(I326
I334
tp601
sg6
(lp602
I521
aI541
asg8
F1476884466657.1802
sg9
Nsg10
F2.8864102629689747
sa(dp603
g2
(I330
I359
tp604
sg4
(I324
I336
tp605
sg6
(lp606
I519
aI543
asg8
F1476884466835.5369
sg9
Nsg10
F2.8864102629689747
sa(dp607
g2
(I326
I360
tp608
sg4
(I317
I337
tp609
sg6
(lp610
I513
aI544
asg8
F1476884467016.4558
sg9
Nsg10
F2.7686049317897323
sa(dp611
g2
(I322
I360
tp612
sg4
(I315
I337
tp613
sg6
(lp614
I510
aI544
asg8
F1476884467173.51
sg9
Nsg10
F2.8461518164460733
sa(dp615
g2
(I318
I364
tp616
sg4
(I312
I341
tp617
sg6
(lp618
I507
aI548
asg8
F1476884467342.5242
sg9
Nsg10
F2.8864102629689747
sa(dp619
g2
(I315
I363
tp620
sg4
(I307
I340
tp621
sg6
(lp622
I503
aI547
asg8
F1476884467480.244
sg9
Nsg10
F2.8068558162729786
sa(dp623
g2
(I313
I364
tp624
sg4
(I305
I342
tp625
sg6
(lp626
I501
aI549
asg8
F1476884467639.927
sg9
Nsg10
F2.792821650005886
sa(dp627
g2
(I312
I367
tp628
sg4
(I303
I344
tp629
sg6
(lp630
I499
aI551
asg8
F1476884467775.1821
sg9
Nsg10
F2.7686049317897323
sa(dp631
g2
(I306
I364
tp632
sg4
(I297
I344
tp633
sg6
(lp634
I493
aI550
asg8
F1476884467908.177
sg9
Nsg10
F2.718738727456852
sa(dp635
g2
(I303
I368
tp636
sg4
(I294
I346
tp637
sg6
(lp638
I490
aI553
asg8
F1476884468055.103
sg9
Nsg10
F2.7532739354173272
sa(dp639
g2
(I300
I371
tp640
sg4
(I290
I350
tp641
sg6
(lp642
I487
aI556
asg8
F1476884468216.5352
sg9
Nsg10
F2.697173443688694
sa(dp643
g2
(I299
I371
tp644
sg4
(I288
I350
tp645
sg6
(lp646
I485
aI556
asg8
F1476884468371.412
sg9
Nsg10
F2.659079358567316
sa(dp647
g2
(I294
I370
tp648
sg4
(I283
I351
tp649
sg6
(lp650
I480
aI556
asg8
F1476884468509.885
sg9
Nsg10
F2.6167968819396856
sa(dp651
g2
(I291
I376
tp652
sg4
(I281
I355
tp653
sg6
(lp654
I478
aI561
asg8
F1476884468646.834
sg9
Nsg10
F2.697173443688694
sa(dp655
g2
(I286
I376
tp656
sg4
(I276
I355
tp657
sg6
(lp658
I473
aI561
asg8
F1476884468848.906
sg9
Nsg10
F2.697173443688694
sa(dp659
g2
(I284
I376
tp660
sg4
(I276
I355
tp661
sg6
(lp662
I472
aI561
asg8
F1476884469030.791
sg9
Nsg10
F2.777613697080149
sa(dp663
g2
(I283
I379
tp664
sg4
(I274
I358
tp665
sg6
(lp666
I470
aI564
asg8
F1476884469208.354
sg9
Nsg10
F2.7367008673047097
sa(dp667
g2
(I281
I381
tp668
sg4
(I271
I360
tp669
sg6
(lp670
I468
aI566
asg8
F1476884469418.166
sg9
Nsg10
F2.697173443688694
sa(dp671
g2
(I274
I383
tp672
sg4
(I267
I361
tp673
sg6
(lp674
I462
aI568
asg8
F1476884469561.947
sg9
Nsg10
F2.833539872566017
sa(dp675
g2
(I274
I386
tp676
sg4
(I264
I364
tp677
sg6
(lp678
I461
aI571
asg8
F1476884469703.959
sg9
Nsg10
F2.714965160462917
sa(dp679
g2
(I273
I386
tp680
sg4
(I262
I364
tp681
sg6
(lp682
I459
aI571
asg8
F1476884469854.544
sg9
Nsg10
F2.677945044588987
sa(dp683
g2
(I266
I385
tp684
sg4
(I258
I363
tp685
sg6
(lp686
I454
aI570
asg8
F1476884469997.486
sg9
Nsg10
F2.792821650005886
sa(dp687
g2
(I266
I389
tp688
sg4
(I255
I367
tp689
sg6
(lp690
I452
aI574
asg8
F1476884470139.961
sg9
Nsg10
F2.677945044588987
sa(dp691
g2
(I261
I389
tp692
sg4
(I250
I369
tp693
sg6
(lp694
I447
aI575
asg8
F1476884470300.211
sg9
Nsg10
F2.6387494426619322
sa(dp695
g2
(I257
I391
tp696
sg4
(I247
I370
tp697
sg6
(lp698
I444
aI576
asg8
F1476884470436.313
sg9
Nsg10
F2.697173443688694
sa(dp699
g2
(I253
I395
tp700
sg4
(I242
I373
tp701
sg6
(lp702
I439
aI580
asg8
F1476884470596.854
sg9
Nsg10
F2.677945044588987
sa(dp703
g2
(I251
I393
tp704
sg4
(I239
I374
tp705
sg6
(lp706
I437
aI579
asg8
F1476884470838.704
sg9
Nsg10
F2.578276392097825
sa(dp707
g2
(I245
I395
tp708
sg4
(I235
I375
tp709
sg6
(lp710
I432
aI581
asg8
F1476884471065.5452
sg9
Nsg10
F2.677945044588987
sa(dp711
g2
(I243
I399
tp712
sg4
(I233
I379
tp713
sg6
(lp714
I430
aI585
asg8
F1476884471302.582
sg9
Nsg10
F2.677945044588987
sa(dp715
g2
(I241
I398
tp716
sg4
(I231
I378
tp717
sg6
(lp718
I428
aI584
asg8
F1476884471516.02
sg9
Nsg10
F2.677945044588987
sa(dp719
g2
(I238
I399
tp720
sg4
(I228
I378
tp721
sg6
(lp722
I425
aI584
asg8
F1476884471759.6099
sg9
Nsg10
F2.697173443688694
sa(dp723
g2
(I236
I402
tp724
sg4
(I227
I381
tp725
sg6
(lp726
I423
aI587
asg8
F1476884472026.23
sg9
Nsg10
F2.7367008673047097
sa(dp727
g2
(I235
I403
tp728
sg4
(I223
I383
tp729
sg6
(lp730
I421
aI589
asg8
F1476884472293.9438
sg9
Nsg10
F2.601173153319209
sa(dp731
g2
(I228
I403
tp732
sg4
(I218
I383
tp733
sg6
(lp734
I415
aI589
asg8
F1476884472498.89
sg9
Nsg10
F2.677945044588987
sa(dp735
g2
(I228
I407
tp736
sg4
(I216
I388
tp737
sg6
(lp738
I414
aI593
asg8
F1476884472654.539
sg9
Nsg10
F2.578276392097825
sa(dp739
g2
(I227
I407
tp740
sg4
(I214
I387
tp741
sg6
(lp742
I412
aI593
asg8
F1476884472804.2668
sg9
Nsg10
F2.5652174329986095
sa(dp743
g2
(I221
I414
tp744
sg4
(I208
I394
tp745
sg6
(lp746
I406
aI600
asg8
F1476884472976.547
sg9
Nsg10
F2.5652174329986095
sa(dp747
g2
(I216
I414
tp748
sg4
(I204
I394
tp749
sg6
(lp750
I402
aI600
asg8
F1476884473150.1829
sg9
Nsg10
F2.601173153319209
sa(dp751
g2
(I215
I419
tp752
sg4
(I202
I399
tp753
sg6
(lp754
I400
aI605
asg8
F1476884473324.7659
sg9
Nsg10
F2.5652174329986095
sa(dp755
g2
(I208
I419
tp756
sg4
(I196
I401
tp757
sg6
(lp758
I394
aI606
asg8
F1476884473453.906
sg9
Nsg10
F2.5535900500422257
sa(dp759
g2
(I205
I427
tp760
sg4
(I191
I408
tp761
sg6
(lp762
I390
aI613
asg8
F1476884473623.376
sg9
Nsg10
F2.5065659181994793
sa(dp763
g2
(I200
I426
tp764
sg4
(I184
I410
tp765
sg6
(lp766
I384
aI614
asg8
F1476884473748.903
sg9
Nsg10
F2.356194490192345
sa(dp767
g2
(I199
I429
tp768
sg4
(I186
I411
tp769
sg6
(lp770
I384
aI616
asg8
F1476884473903.165
sg9
Nsg10
F2.516107613350564
sa(dp771
g2
(I197
I432
tp772
sg4
(I185
I413
tp773
sg6
(lp774
I383
aI618
asg8
F1476884474050.521
sg9
Nsg10
F2.578276392097825
sa(dp775
g2
(I191
I433
tp776
sg4
(I179
I415
tp777
sg6
(lp778
I377
aI620
asg8
F1476884474209.1118
sg9
Nsg10
F2.5535900500422257
sa(dp779
g2
(I189
I438
tp780
sg4
(I177
I419
tp781
sg6
(lp782
I375
aI624
asg8
F1476884474360.665
sg9
Nsg10
F2.578276392097825
sa(dp783
g2
(I189
I440
tp784
sg4
(I176
I420
tp785
sg6
(lp786
I374
aI626
asg8
F1476884474495.713
sg9
Nsg10
F2.5652174329986095
sa(dp787
g2
(I182
I440
tp788
sg4
(I172
I420
tp789
sg6
(lp790
I369
aI626
asg8
F1476884474629.52
sg9
Nsg10
F2.677945044588987
sa(dp791
g2
(I181
I442
tp792
sg4
(I170
I422
tp793
sg6
(lp794
I367
aI628
asg8
F1476884474847.0671
sg9
Nsg10
F2.6387494426619322
sa(dp795
g2
(I179
I447
tp796
sg4
(I168
I426
tp797
sg6
(lp798
I365
aI632
asg8
F1476884475030.07
sg9
Nsg10
F2.659079358567316
sa(dp799
g2
(I175
I445
tp800
sg4
(I164
I426
tp801
sg6
(lp802
I361
aI631
asg8
F1476884475203.6072
sg9
Nsg10
F2.6167968819396856
sa(dp803
g2
(I173
I446
tp804
sg4
(I162
I427
tp805
sg6
(lp806
I359
aI632
asg8
F1476884475405.725
sg9
Nsg10
F2.6167968819396856
sa(dp807
g2
(I173
I452
tp808
sg4
(I160
I432
tp809
sg6
(lp810
I358
aI638
asg8
F1476884475585.376
sg9
Nsg10
F2.5652174329986095
sa(dp811
g2
(I169
I451
tp812
sg4
(I154
I434
tp813
sg6
(lp814
I353
aI638
asg8
F1476884475732.3352
sg9
Nsg10
F2.4186133001883023
sa(dp815
g2
(I164
I455
tp816
sg4
(I153
I435
tp817
sg6
(lp818
I350
aI641
asg8
F1476884475867.7249
sg9
Nsg10
F2.6387494426619322
sa(dp819
g2
(I162
I458
tp820
sg4
(I152
I438
tp821
sg6
(lp822
I349
aI644
asg8
F1476884476035.702
sg9
Nsg10
F2.677945044588987
sa(dp823
g2
(I159
I458
tp824
sg4
(I147
I439
tp825
sg6
(lp826
I345
aI644
asg8
F1476884476168.243
sg9
Nsg10
F2.578276392097825
sa(dp827
g2
(I155
I461
tp828
sg4
(I144
I442
tp829
sg6
(lp830
I341
aI647
asg8
F1476884476319.804
sg9
Nsg10
F2.6167968819396856
sa(dp831
g2
(I154
I463
tp832
sg4
(I141
I444
tp833
sg6
(lp834
I339
aI649
asg8
F1476884476489.291
sg9
Nsg10
F2.5415424401880395
sa(dp835
g2
(I147
I463
tp836
sg4
(I136
I445
tp837
sg6
(lp838
I333
aI650
asg8
F1476884476644.5962
sg9
Nsg10
F2.593043251139265
sa(dp839
g2
(I146
I469
tp840
sg4
(I132
I450
tp841
sg6
(lp842
I331
aI655
asg8
F1476884476801.3079
sg9
Nsg10
F2.5065659181994793
sa(dp843
g2
(I141
I468
tp844
sg4
(I128
I450
tp845
sg6
(lp846
I326
aI655
asg8
F1476884476948.373
sg9
Nsg10
F2.516107613350564
sa(dp847
g2
(I140
I469
tp848
sg4
(I127
I451
tp849
sg6
(lp850
I325
aI656
asg8
F1476884477125.0242
sg9
Nsg10
F2.516107613350564
sa(dp851
g2
(I138
I474
tp852
sg4
(I127
I454
tp853
sg6
(lp854
I324
aI660
asg8
F1476884477298.873
sg9
Nsg10
F2.6387494426619322
sa(dp855
g2
(I137
I475
tp856
sg4
(I125
I456
tp857
sg6
(lp858
I323
aI661
asg8
F1476884477431.5232
sg9
Nsg10
F2.578276392097825
sa(dp859
g2
(I132
I476
tp860
sg4
(I117
I458
tp861
sg6
(lp862
I316
aI663
asg8
F1476884477575.054
sg9
Nsg10
F2.4468543773930898
sa(dp863
g2
(I131
I479
tp864
sg4
(I118
I461
tp865
sg6
(lp866
I316
aI666
asg8
F1476884477744.107
sg9
Nsg10
F2.516107613350564
sa(dp867
g2
(I129
I481
tp868
sg4
(I116
I462
tp869
sg6
(lp870
I314
aI667
asg8
F1476884477938.712
sg9
Nsg10
F2.5415424401880395
sa(dp871
g2
(I123
I482
tp872
sg4
(I114
I461
tp873
sg6
(lp874
I310
aI667
asg8
F1476884478113.7231
sg9
Nsg10
F2.7367008673047097
sa(dp875
g2
(I121
I484
tp876
sg4
(I114
I462
tp877
sg6
(lp878
I309
aI669
asg8
F1476884478268.009
sg9
Nsg10
F2.833539872566017
sa(dp879
g2
(I117
I488
tp880
sg4
(I109
I467
tp881
sg6
(lp882
I305
aI673
asg8
F1476884478455.6091
sg9
Nsg10
F2.777613697080149
sa(dp883
g2
(I112
I486
tp884
sg4
(I105
I465
tp885
sg6
(lp886
I300
aI671
asg8
F1476884478604.445
sg9
Nsg10
F2.819842099193151
sa(dp887
g2
(I112
I487
tp888
sg4
(I105
I466
tp889
sg6
(lp890
I300
aI672
asg8
F1476884478749.991
sg9
Nsg10
F2.819842099193151
sa(dp891
g2
(I111
I489
tp892
sg4
(I103
I468
tp893
sg6
(lp894
I299
aI674
asg8
F1476884478934.864
sg9
Nsg10
F2.777613697080149
sa(dp895
g2
(I104
I489
tp896
sg4
(I96
I469
tp897
sg6
(lp898
I292
aI675
asg8
F1476884479107.199
sg9
Nsg10
F2.761086276477428
sa(dp899
g2
(I103
I493
tp900
sg4
(I93
I473
tp901
sg6
(lp902
I290
aI679
asg8
F1476884479282.437
sg9
Nsg10
F2.677945044588987
sa(dp903
g2
(I102
I494
tp904
sg4
(I92
I474
tp905
sg6
(lp906
I289
aI680
asg8
F1476884479422.4492
sg9
Nsg10
F2.677945044588987
sa(dp907
g2
(I99
I491
tp908
sg4
(I88
I472
tp909
sg6
(lp910
I285
aI677
asg8
F1476884479586.551
sg9
Nsg10
F2.6167968819396856
sa(dp911
g2
(I96
I495
tp912
sg4
(I86
I475
tp913
sg6
(lp914
I283
aI681
asg8
F1476884479735.1301
sg9
Nsg10
F2.677945044588987
sa(dp915
g2
(I92
I499
tp916
sg4
(I80
I479
tp917
sg6
(lp918
I278
aI685
asg8
F1476884479882.398
sg9
Nsg10
F2.601173153319209
sa(dp919
g2
(I86
I498
tp920
sg4
(I79
I477
tp921
sg6
(lp922
I274
aI683
asg8
F1476884480021.17
sg9
Nsg10
F2.819842099193151
sa(dp923
g2
(I86
I503
tp924
sg4
(I75
I482
tp925
sg6
(lp926
I272
aI688
asg8
F1476884480165.426
sg9
Nsg10
F2.659079358567316
sa(dp927
g2
(I84
I502
tp928
sg4
(I70
I483
tp929
sg6
(lp930
I269
aI688
asg8
F1476884480306.8499
sg9
Nsg10
F2.5065659181994793
sa(dp931
g2
(I79
I502
tp932
sg4
(I69
I482
tp933
sg6
(lp934
I266
aI688
asg8
F1476884480451.528
sg9
Nsg10
F2.677945044588987
sa(dp935
g2
(I79
I505
tp936
sg4
(I66
I485
tp937
sg6
(lp938
I264
aI691
asg8
F1476884480588.14
sg9
Nsg10
F2.5652174329986095
sa(dp939
g2
(I79
I505
tp940
sg4
(I68
I485
tp941
sg6
(lp942
I265
aI691
asg8
F1476884480776.927
sg9
Nsg10
F2.6387494426619322
sa(dp943
g2
(I78
I504
tp944
sg4
(I71
I481
tp945
sg6
(lp946
I266
aI688
asg8
F1476884480938.426
sg9
Nsg10
F2.8461518164460733
sa(dp947
g2
(I75
I503
tp948
sg4
(I72
I480
tp949
sg6
(lp950
I265
aI687
asg8
F1476884481119.731
sg9
Nsg10
F3.011890116433881
sa(dp951
g2
(I76
I507
tp952
sg4
(I71
I485
tp953
sg6
(lp954
I265
aI692
asg8
F1476884481303.135
sg9
Nsg10
F2.91811605244916
sa(dp955
g2
(I72
I507
tp956
sg4
(I72
I484
tp957
sg6
(lp958
I264
aI691
asg8
F1476884481469.231
sg9
Nsg10
F3.141592653589793
sa(dp959
g2
(I67
I505
tp960
sg4
(I73
I481
tp961
sg6
(lp962
I262
aI689
asg8
F1476884481638.397
sg9
Nsg10
F3.3865713167166573
sa(dp963
g2
(I67
I509
tp964
sg4
(I73
I486
tp965
sg6
(lp966
I262
aI693
asg8
F1476884481796.7588
sg9
Nsg10
F3.3967750442106115
sa(dp967
g2
(I68
I512
tp968
sg4
(I66
I491
tp969
sg6
(lp970
I259
aI697
asg8
F1476884481958.466
sg9
Nsg10
F3.046640947247037
sa(dp971
g2
(I62
I511
tp972
sg4
(I73
I486
tp973
sg6
(lp974
I259
aI694
asg8
F1476884482077.218
sg9
Nsg10
F3.5560995281745793
sa(dp975
g2
(I62
I511
tp976
sg4
(I69
I488
tp977
sg6
(lp978
I257
aI695
asg8
F1476884482236.082
sg9
Nsg10
F3.437033490733513
sa(dp979
g2
(I62
I517
tp980
sg4
(I61
I495
tp981
sg6
(lp982
I253
aI702
asg8
F1476884482391.5552
sg9
Nsg10
F3.096169374168216
sa(dp983
g2
(I58
I514
tp984
sg4
(I67
I490
tp985
sg6
(lp986
I254
aI698
asg8
F1476884482573.993
sg9
Nsg10
F3.5003633238603653
sa(dp987
g2
(I57
I515
tp988
sg4
(I64
I491
tp989
sg6
(lp990
I252
aI699
asg8
F1476884482708.939
sg9
Nsg10
F3.425386762798121
sa(dp991
g2
(I62
I522
tp992
sg4
(I63
I500
tp993
sg6
(lp994
I254
aI707
asg8
F1476884482854.4
sg9
Nsg10
F3.18701593301137
sa(dp995
g2
(I61
I526
tp996
sg4
(I61
I505
tp997
sg6
(lp998
I253
aI711
asg8
F1476884483003.86
sg9
Nsg10
F3.141592653589793
sa(dp999
g2
(I60
I524
tp1000
sg4
(I65
I501
tp1001
sg6
(lp1002
I254
aI708
asg8
F1476884483175.2961
sg9
Nsg10
F3.3556533371536146
sa(dp1003
g2
(I61
I524
tp1004
sg4
(I66
I503
tp1005
sg6
(lp1006
I255
aI709
asg8
F1476884483329.823
sg9
Nsg10
F3.3753358344586943
sa(dp1007
g2
(I60
I526
tp1008
sg4
(I62
I506
tp1009
sg6
(lp1010
I253
aI712
asg8
F1476884483481.3298
sg9
Nsg10
F3.241261306080955
sa(dp1011
g2
(I58
I524
tp1012
sg4
(I65
I505
tp1013
sg6
(lp1014
I253
aI710
asg8
F1476884483633.815
sg9
Nsg10
F3.4945830414167034
sa(dp1015
g2
(I48
I506
tp1016
sg4
(I68
I507
tp1017
sg6
(lp1018
I250
aI702
asg8
F1476884484068.959
sg9
Nsg10
F4.762347376106632
sa(dp1019
g2
(I54
I504
tp1020
sg4
(I74
I505
tp1021
sg6
(lp1022
I256
aI700
asg8
F1476884484420.695
sg9
Nsg10
F4.762347376106632
sa(dp1023
g2
(I49
I508
tp1024
sg4
(I69
I509
tp1025
sg6
(lp1026
I251
aI704
asg8
F1476884484567.8042
sg9
Nsg10
F4.762347376106632
sa(dp1027
g2
(I55
I506
tp1028
sg4
(I75
I507
tp1029
sg6
(lp1030
I257
aI702
asg8
F1476884484740.4001
sg9
Nsg10
F4.762347376106632
sa(dp1031
g2
(I56
I506
tp1032
sg4
(I76
I507
tp1033
sg6
(lp1034
I258
aI702
asg8
F1476884484943.075
sg9
Nsg10
F4.762347376106632
sa(dp1035
g2
(I50
I508
tp1036
sg4
(I70
I509
tp1037
sg6
(lp1038
I252
aI704
asg8
F1476884485127.554
sg9
Nsg10
F4.762347376106632
sa(dp1039
g2
(I54
I504
tp1040
sg4
(I74
I505
tp1041
sg6
(lp1042
I256
aI700
asg8
F1476884485309.334
sg9
Nsg10
F4.762347376106632
sa(dp1043
g2
(I50
I502
tp1044
sg4
(I70
I503
tp1045
sg6
(lp1046
I252
aI698
asg8
F1476884485484.221
sg9
Nsg10
F4.762347376106632
sa(dp1047
g2
(I49
I500
tp1048
sg4
(I69
I501
tp1049
sg6
(lp1050
I251
aI696
asg8
F1476884485666.596
sg9
Nsg10
F4.762347376106632
sa(dp1051
g2
(I57
I494
tp1052
sg4
(I77
I495
tp1053
sg6
(lp1054
I259
aI690
asg8
F1476884485843.875
sg9
Nsg10
F4.762347376106632
sa(dp1055
g2
(I54
I492
tp1056
sg4
(I74
I493
tp1057
sg6
(lp1058
I256
aI688
asg8
F1476884485991.865
sg9
Nsg10
F4.762347376106632
sa(dp1059
g2
(I51
I488
tp1060
sg4
(I71
I489
tp1061
sg6
(lp1062
I253
aI684
asg8
F1476884486168.3782
sg9
Nsg10
F4.762347376106632
sa(dp1063
g2
(I55
I475
tp1064
sg4
(I75
I476
tp1065
sg6
(lp1066
I257
aI671
asg8
F1476884486593.291
sg9
Nsg10
F4.762347376106632
sa(dp1067
g2
(I58
I452
tp1068
sg4
(I78
I453
tp1069
sg6
(lp1070
I260
aI648
asg8
F1476884487504.2988
sg9
Nsg10
F4.762347376106632
sa(dp1071
g2
(I59
I451
tp1072
sg4
(I79
I452
tp1073
sg6
(lp1074
I261
aI647
asg8
F1476884487645.926
sg9
Nsg10
F4.762347376106632
sa(dp1075
g2
(I52
I448
tp1076
sg4
(I72
I449
tp1077
sg6
(lp1078
I254
aI644
asg8
F1476884487786.624
sg9
Nsg10
F4.762347376106632
sa(dp1079
g2
(I52
I434
tp1080
sg4
(I72
I435
tp1081
sg6
(lp1082
I254
aI630
asg8
F1476884488234.429
sg9
Nsg10
F4.762347376106632
sa(dp1083
g2
(I55
I425
tp1084
sg4
(I75
I426
tp1085
sg6
(lp1086
I257
aI621
asg8
F1476884488677.498
sg9
Nsg10
F4.762347376106632
sa(dp1087
g2
(I57
I421
tp1088
sg4
(I77
I422
tp1089
sg6
(lp1090
I259
aI617
asg8
F1476884488843.414
sg9
Nsg10
F4.762347376106632
sa(dp1091
g2
(I61
I418
tp1092
sg4
(I81
I419
tp1093
sg6
(lp1094
I263
aI614
asg8
F1476884489007.305
sg9
Nsg10
F4.762347376106632
sa(dp1095
g2
(I58
I413
tp1096
sg4
(I78
I414
tp1097
sg6
(lp1098
I260
aI609
asg8
F1476884489217.846
sg9
Nsg10
F4.762347376106632
sa(dp1099
g2
(I54
I411
tp1100
sg4
(I74
I412
tp1101
sg6
(lp1102
I256
aI607
asg8
F1476884489364.321
sg9
Nsg10
F4.762347376106632
sa(dp1103
g2
(I53
I403
tp1104
sg4
(I73
I404
tp1105
sg6
(lp1106
I255
aI599
asg8
F1476884489824.718
sg9
Nsg10
F4.762347376106632
sa(dp1107
g2
(I57
I396
tp1108
sg4
(I77
I397
tp1109
sg6
(lp1110
I259
aI592
asg8
F1476884489999.092
sg9
Nsg10
F4.762347376106632
sa(dp1111
g2
(I53
I390
tp1112
sg4
(I73
I391
tp1113
sg6
(lp1114
I255
aI586
asg8
F1476884490357.96
sg9
Nsg10
F4.762347376106632
sa(dp1115
g2
(I58
I386
tp1116
sg4
(I78
I387
tp1117
sg6
(lp1118
I260
aI582
asg8
F1476884490506.877
sg9
Nsg10
F4.762347376106632
sa(dp1119
g2
(I52
I382
tp1120
sg4
(I72
I383
tp1121
sg6
(lp1122
I254
aI578
asg8
F1476884490794.679
sg9
Nsg10
F4.762347376106632
sa(dp1123
g2
(I58
I377
tp1124
sg4
(I78
I378
tp1125
sg6
(lp1126
I260
aI573
asg8
F1476884491002.928
sg9
Nsg10
F4.762347376106632
sa(dp1127
g2
(I59
I363
tp1128
sg4
(I79
I364
tp1129
sg6
(lp1130
I261
aI559
asg8
F1476884491445.095
sg9
Nsg10
F4.762347376106632
sa(dp1131
g2
(I54
I358
tp1132
sg4
(I74
I359
tp1133
sg6
(lp1134
I256
aI554
asg8
F1476884491731.089
sg9
Nsg10
F4.762347376106632
sa(dp1135
g2
(I56
I350
tp1136
sg4
(I76
I351
tp1137
sg6
(lp1138
I258
aI546
asg8
F1476884492011.7031
sg9
Nsg10
F4.762347376106632
sa(dp1139
g2
(I60
I342
tp1140
sg4
(I80
I343
tp1141
sg6
(lp1142
I262
aI538
asg8
F1476884492337.881
sg9
Nsg10
F4.762347376106632
sa(dp1143
g2
(I57
I340
tp1144
sg4
(I77
I341
tp1145
sg6
(lp1146
I259
aI536
asg8
F1476884492495.022
sg9
Nsg10
F4.762347376106632
sa(dp1147
g2
(I59
I333
tp1148
sg4
(I79
I334
tp1149
sg6
(lp1150
I261
aI529
asg8
F1476884492916.414
sg9
Nsg10
F4.762347376106632
sa(dp1151
g2
(I61
I309
tp1152
sg4
(I81
I310
tp1153
sg6
(lp1154
I263
aI505
asg8
F1476884494092.855
sg9
Nsg10
F4.762347376106632
sa(dp1155
g2
(I58
I296
tp1156
sg4
(I78
I297
tp1157
sg6
(lp1158
I260
aI492
asg8
F1476884494354.6602
sg9
Nsg10
F4.762347376106632
sa(dp1159
g2
(I53
I292
tp1160
sg4
(I73
I293
tp1161
sg6
(lp1162
I255
aI488
asg8
F1476884494545.438
sg9
Nsg10
F4.762347376106632
sa(dp1163
g2
(I60
I290
tp1164
sg4
(I80
I291
tp1165
sg6
(lp1166
I262
aI486
asg8
F1476884494744.8152
sg9
Nsg10
F4.762347376106632
sa(dp1167
g2
(I54
I282
tp1168
sg4
(I74
I283
tp1169
sg6
(lp1170
I256
aI478
asg8
F1476884495093.415
sg9
Nsg10
F4.762347376106632
sa(dp1171
g2
(I59
I275
tp1172
sg4
(I79
I276
tp1173
sg6
(lp1174
I261
aI471
asg8
F1476884495420.773
sg9
Nsg10
F4.762347376106632
sa(dp1175
g2
(I53
I261
tp1176
sg4
(I73
I262
tp1177
sg6
(lp1178
I255
aI457
asg8
F1476884496074.429
sg9
Nsg10
F4.762347376106632
sa(dp1179
g2
(I63
I245
tp1180
sg4
(I83
I246
tp1181
sg6
(lp1182
I265
aI441
asg8
F1476884496858.225
sg9
Nsg10
F4.762347376106632
sa(dp1183
g2
(I61
I242
tp1184
sg4
(I81
I243
tp1185
sg6
(lp1186
I263
aI438
asg8
F1476884497043.8599
sg9
Nsg10
F4.762347376106632
sa(dp1187
g2
(I67
I240
tp1188
sg4
(I87
I241
tp1189
sg6
(lp1190
I269
aI436
asg8
F1476884497199.982
sg9
Nsg10
F4.762347376106632
sa(dp1191
g2
(I64
I235
tp1192
sg4
(I84
I236
tp1193
sg6
(lp1194
I266
aI431
asg8
F1476884497505.744
sg9
Nsg10
F4.762347376106632
sa(dp1195
g2
(I57
I228
tp1196
sg4
(I77
I229
tp1197
sg6
(lp1198
I259
aI424
asg8
F1476884497656.512
sg9
Nsg10
F4.762347376106632
sa(dp1199
g2
(I62
I223
tp1200
sg4
(I82
I224
tp1201
sg6
(lp1202
I264
aI419
asg8
F1476884497924.908
sg9
Nsg10
F4.762347376106632
sa(dp1203
g2
(I59
I191
tp1204
sg4
(I79
I192
tp1205
sg6
(lp1206
I261
aI387
asg8
F1476884499433.468
sg9
Nsg10
F4.762347376106632
sa(dp1207
g2
(I54
I186
tp1208
sg4
(I74
I187
tp1209
sg6
(lp1210
I256
aI382
asg8
F1476884499597.833
sg9
Nsg10
F4.762347376106632
sa(dp1211
g2
(I57
I185
tp1212
sg4
(I77
I186
tp1213
sg6
(lp1214
I259
aI381
asg8
F1476884499735.726
sg9
Nsg10
F4.762347376106632
sa(dp1215
g2
(I60
I183
tp1216
sg4
(I80
I184
tp1217
sg6
(lp1218
I262
aI379
asg8
F1476884499880.462
sg9
Nsg10
F4.762347376106632
sa(dp1219
g2
(I53
I179
tp1220
sg4
(I73
I180
tp1221
sg6
(lp1222
I255
aI375
asg8
F1476884500044.004
sg9
Nsg10
F4.762347376106632
sa(dp1223
g2
(I60
I172
tp1224
sg4
(I80
I173
tp1225
sg6
(lp1226
I262
aI368
asg8
F1476884500347.965
sg9
Nsg10
F4.762347376106632
sa(dp1227
g2
(I61
I140
tp1228
sg4
(I81
I141
tp1229
sg6
(lp1230
I263
aI336
asg8
F1476884501622.3098
sg9
Nsg10
F4.762347376106632
sa(dp1231
g2
(I60
I138
tp1232
sg4
(I80
I139
tp1233
sg6
(lp1234
I262
aI334
asg8
F1476884501829.262
sg9
Nsg10
F4.762347376106632
sa(dp1235
g2
(I56
I132
tp1236
sg4
(I76
I133
tp1237
sg6
(lp1238
I258
aI328
asg8
F1476884501994.919
sg9
Nsg10
F4.762347376106632
sa(dp1239
g2
(I59
I131
tp1240
sg4
(I79
I132
tp1241
sg6
(lp1242
I261
aI327
asg8
F1476884502141.9219
sg9
Nsg10
F4.762347376106632
sa(dp1243
g2
(I58
I124
tp1244
sg4
(I78
I125
tp1245
sg6
(lp1246
I260
aI320
asg8
F1476884502346.71
sg9
Nsg10
F4.762347376106632
sa(dp1247
g2
(I57
I122
tp1248
sg4
(I77
I123
tp1249
sg6
(lp1250
I259
aI318
asg8
F1476884502502.916
sg9
Nsg10
F4.762347376106632
sa(dp1251
g2
(I59
I120
tp1252
sg4
(I79
I121
tp1253
sg6
(lp1254
I261
aI316
asg8
F1476884502648.997
sg9
Nsg10
F4.762347376106632
sa(dp1255
g2
(I55
I120
tp1256
sg4
(I75
I121
tp1257
sg6
(lp1258
I257
aI316
asg8
F1476884503019.5762
sg9
Nsg10
F4.762347376106632
sa(dp1259
g2
(I58
I121
tp1260
sg4
(I78
I122
tp1261
sg6
(lp1262
I260
aI317
asg8
F1476884503186.9048
sg9
Nsg10
F4.762347376106632
sa(dp1263
g2
(I60
I120
tp1264
sg4
(I80
I121
tp1265
sg6
(lp1266
I262
aI316
asg8
F1476884503362.09
sg9
Nsg10
F4.762347376106632
sa(dp1267
g2
(I53
I118
tp1268
sg4
(I73
I119
tp1269
sg6
(lp1270
I255
aI314
asg8
F1476884503528.477
sg9
Nsg10
F4.762347376106632
sa(dp1271
g2
(I61
I130
tp1272
sg4
(I79
I116
tp1273
sg6
(lp1274
I262
aI319
asg8
F1476884503665.3188
sg9
Nsg10
F4.051345811534003
sa(dp1275
g2
(I61
I129
tp1276
sg4
(I80
I114
tp1277
sg6
(lp1278
I262
aI317
asg8
F1476884503789.0352
sg9
Nsg10
F4.0440995615541055
sa(dp1279
g2
(I62
I134
tp1280
sg4
(I72
I115
tp1281
sg6
(lp1282
I259
aI320
asg8
F1476884503916.491
sg9
Nsg10
F3.6260705826268165
sa(dp1283
g2
(I63
I133
tp1284
sg4
(I73
I114
tp1285
sg6
(lp1286
I260
aI319
asg8
F1476884504041.547
sg9
Nsg10
F3.6260705826268165
sa(dp1287
g2
(I63
I132
tp1288
sg4
(I92
I115
tp1289
sg6
(lp1290
I269
aI319
asg8
F1476884504190.012
sg9
Nsg10
F4.182173207608059
sa(dp1291
g2
(I65
I134
tp1292
sg4
(I70
I113
tp1293
sg6
(lp1294
I259
aI319
asg8
F1476884504332.0068
sg9
Nsg10
F3.3753358344586943
sa(dp1295
g2
(I66
I130
tp1296
sg4
(I73
I109
tp1297
sg6
(lp1298
I261
aI315
asg8
F1476884504456.218
sg9
Nsg10
F3.4633432079864352
sa(dp1299
g2
(I65
I129
tp1300
sg4
(I74
I107
tp1301
sg6
(lp1302
I261
aI314
asg8
F1476884504586.3381
sg9
Nsg10
F3.529911371762259
sa(dp1303
g2
(I69
I134
tp1304
sg4
(I66
I110
tp1305
sg6
(lp1306
I259
aI318
asg8
F1476884504748.934
sg9
Nsg10
F3.017237659043032
sa(dp1307
g2
(I69
I134
tp1308
sg4
(I67
I110
tp1309
sg6
(lp1310
I260
aI318
asg8
F1476884504964.238
sg9
Nsg10
F3.058451421701352
sa(dp1311
g2
(I71
I131
tp1312
sg4
(I71
I108
tp1313
sg6
(lp1314
I263
aI315
asg8
F1476884505148.0679
sg9
Nsg10
F3.141592653589793
sa(dp1315
g2
(I70
I124
tp1316
sg4
(I75
I102
tp1317
sg6
(lp1318
I264
aI309
asg8
F1476884505334.74
sg9
Nsg10
F3.365069254730426
sa(dp1319
g2
(I73
I126
tp1320
sg4
(I74
I102
tp1321
sg6
(lp1322
I265
aI310
asg8
F1476884505492.264
sg9
Nsg10
F3.1832352326883817
sa(dp1323
g2
(I71
I128
tp1324
sg4
(I69
I104
tp1325
sg6
(lp1326
I262
aI312
asg8
F1476884505639.293
sg9
Nsg10
F3.058451421701352
sa(dp1327
g2
(I70
I126
tp1328
sg4
(I83
I103
tp1329
sg6
(lp1330
I268
aI310
asg8
F1476884505785.665
sg9
Nsg10
F3.656043966648821
sa(dp1331
g2
(I69
I121
tp1332
sg4
(I74
I99
tp1333
sg6
(lp1334
I263
aI306
asg8
F1476884505922.112
sg9
Nsg10
F3.365069254730426
sa(dp1335
g2
(I75
I126
tp1336
sg4
(I69
I103
tp1337
sg6
(lp1338
I264
aI310
asg8
F1476884506063.533
sg9
Nsg10
F2.8864102629689747
sa(dp1339
g2
(I77
I128
tp1340
sg4
(I70
I105
tp1341
sg6
(lp1342
I265
aI312
asg8
F1476884506191.3792
sg9
Nsg10
F2.8461518164460733
sa(dp1343
g2
(I75
I124
tp1344
sg4
(I71
I103
tp1345
sg6
(lp1346
I265
aI309
asg8
F1476884506330.865
sg9
Nsg10
F2.9533711482850222
sa(dp1347
g2
(I80
I127
tp1348
sg4
(I69
I105
tp1349
sg6
(lp1350
I266
aI312
asg8
F1476884506466.86
sg9
Nsg10
F2.677945044588987
sa(dp1351
g2
(I80
I123
tp1352
sg4
(I72
I105
tp1353
sg6
(lp1354
I268
aI310
asg8
F1476884506634.105
sg9
Nsg10
F2.723368324010564
sa(dp1355
g2
(I78
I117
tp1356
sg4
(I58
I116
tp1357
sg6
(lp1358
I260
aI312
asg8
F1476884507704.302
sg9
Nsg10
F1.6207547225168393
sa(dp1359
g2
(I78
I117
tp1360
sg4
(I58
I116
tp1361
sg6
(lp1362
I260
aI312
asg8
F1476884507904.9128
sg9
Nsg10
F1.6207547225168393
sa(dp1363
g2
(I86
I121
tp1364
sg4
(I66
I120
tp1365
sg6
(lp1366
I268
aI316
asg8
F1476884508049.813
sg9
Nsg10
F1.6207547225168393
sa(dp1367
g2
(I79
I118
tp1368
sg4
(I59
I117
tp1369
sg6
(lp1370
I261
aI313
asg8
F1476884508208.115
sg9
Nsg10
F1.6207547225168393
sa(dp1371
g2
(I79
I119
tp1372
sg4
(I59
I118
tp1373
sg6
(lp1374
I261
aI314
asg8
F1476884508422.59
sg9
Nsg10
F1.6207547225168393
sa(dp1375
g2
(I85
I121
tp1376
sg4
(I65
I120
tp1377
sg6
(lp1378
I267
aI316
asg8
F1476884508558.9348
sg9
Nsg10
F1.6207547225168393
sa(dp1379
g2
(I82
I123
tp1380
sg4
(I62
I122
tp1381
sg6
(lp1382
I264
aI318
asg8
F1476884508707.5168
sg9
Nsg10
F1.6207547225168393
sa(dp1383
g2
(I88
I132
tp1384
sg4
(I68
I131
tp1385
sg6
(lp1386
I270
aI327
asg8
F1476884509050.536
sg9
Nsg10
F1.6207547225168393
sa(dp1387
g2
(I88
I135
tp1388
sg4
(I68
I134
tp1389
sg6
(lp1390
I270
aI330
asg8
F1476884509477.7751
sg9
Nsg10
F1.6207547225168393
sa(dp1391
g2
(I93
I147
tp1392
sg4
(I73
I146
tp1393
sg6
(lp1394
I275
aI342
asg8
F1476884510045.923
sg9
Nsg10
F1.6207547225168393
sa(dp1395
g2
(I92
I149
tp1396
sg4
(I72
I148
tp1397
sg6
(lp1398
I274
aI344
asg8
F1476884510203.9749
sg9
Nsg10
F1.6207547225168393
sa(dp1399
g2
(I102
I153
tp1400
sg4
(I82
I152
tp1401
sg6
(lp1402
I284
aI348
asg8
F1476884510358.133
sg9
Nsg10
F1.6207547225168393
sa(dp1403
g2
(I101
I154
tp1404
sg4
(I81
I153
tp1405
sg6
(lp1406
I283
aI349
asg8
F1476884510488.571
sg9
Nsg10
F1.6207547225168393
sa(dp1407
g2
(I105
I162
tp1408
sg4
(I85
I161
tp1409
sg6
(lp1410
I287
aI357
asg8
F1476884510833.936
sg9
Nsg10
F1.6207547225168393
sa(dp1411
g2
(I107
I164
tp1412
sg4
(I87
I163
tp1413
sg6
(lp1414
I289
aI359
asg8
F1476884511031.6812
sg9
Nsg10
F1.6207547225168393
sa(dp1415
g2
(I104
I169
tp1416
sg4
(I84
I168
tp1417
sg6
(lp1418
I286
aI364
asg8
F1476884511214.904
sg9
Nsg10
F1.6207547225168393
sa(dp1419
g2
(I109
I172
tp1420
sg4
(I89
I171
tp1421
sg6
(lp1422
I291
aI367
asg8
F1476884511420.362
sg9
Nsg10
F1.6207547225168393
sa(dp1423
g2
(I111
I173
tp1424
sg4
(I91
I172
tp1425
sg6
(lp1426
I293
aI368
asg8
F1476884511596.139
sg9
Nsg10
F1.6207547225168393
sa(dp1427
g2
(I119
I186
tp1428
sg4
(I99
I185
tp1429
sg6
(lp1430
I301
aI381
asg8
F1476884512045.1208
sg9
Nsg10
F1.6207547225168393
sa(dp1431
g2
(I117
I195
tp1432
sg4
(I97
I194
tp1433
sg6
(lp1434
I299
aI390
asg8
F1476884512469.5352
sg9
Nsg10
F1.6207547225168393
sa(dp1435
g2
(I111
I202
tp1436
sg4
(I91
I201
tp1437
sg6
(lp1438
I293
aI397
asg8
F1476884512624.6482
sg9
Nsg10
F1.6207547225168393
sa(dp1439
g2
(I116
I204
tp1440
sg4
(I96
I203
tp1441
sg6
(lp1442
I298
aI399
asg8
F1476884512771.392
sg9
Nsg10
F1.6207547225168393
sa(dp1443
g2
(I121
I206
tp1444
sg4
(I101
I205
tp1445
sg6
(lp1446
I303
aI401
asg8
F1476884512926.5972
sg9
Nsg10
F1.6207547225168393
sa(dp1447
g2
(I124
I215
tp1448
sg4
(I104
I214
tp1449
sg6
(lp1450
I306
aI410
asg8
F1476884513252.223
sg9
Nsg10
F1.6207547225168393
sa(dp1451
g2
(I125
I217
tp1452
sg4
(I105
I216
tp1453
sg6
(lp1454
I307
aI412
asg8
F1476884513385.16
sg9
Nsg10
F1.6207547225168393
sa(dp1455
g2
(I120
I223
tp1456
sg4
(I100
I222
tp1457
sg6
(lp1458
I302
aI418
asg8
F1476884513670.408
sg9
Nsg10
F1.6207547225168393
sa(dp1459
g2
(I128
I226
tp1460
sg4
(I108
I225
tp1461
sg6
(lp1462
I310
aI421
asg8
F1476884513895.548
sg9
Nsg10
F1.6207547225168393
sa(dp1463
g2
(I123
I225
tp1464
sg4
(I103
I224
tp1465
sg6
(lp1466
I305
aI420
asg8
F1476884514074.764
sg9
Nsg10
F1.6207547225168393
sa(dp1467
g2
(I124
I224
tp1468
sg4
(I104
I223
tp1469
sg6
(lp1470
I306
aI419
asg8
F1476884514254.191
sg9
(I401
I51
tp1471
sg10
F1.6207547225168393
sa(dp1472
g2
(I125
I228
tp1473
sg4
(I105
I227
tp1474
sg6
(lp1475
I307
aI423
asg8
F1476884514459.849
sg9
(I373
I50
tp1476
sg10
F1.6207547225168393
sa(dp1477
g2
(I119
I235
tp1478
sg4
(I99
I234
tp1479
sg6
(lp1480
I301
aI430
asg8
F1476884514769.83
sg9
(I367
I100
tp1481
sg10
F1.6207547225168393
sa(dp1482
g2
(I120
I237
tp1483
sg4
(I100
I236
tp1484
sg6
(lp1485
I302
aI432
asg8
F1476884515002.501
sg9
(I360
I109
tp1486
sg10
F1.6207547225168393
sa(dp1487
g2
(I119
I241
tp1488
sg4
(I99
I240
tp1489
sg6
(lp1490
I301
aI436
asg8
F1476884515187.0488
sg9
(I349
I136
tp1491
sg10
F1.6207547225168393
sa(dp1492
g2
(I114
I240
tp1493
sg4
(I94
I239
tp1494
sg6
(lp1495
I296
aI435
asg8
F1476884515393.409
sg9
(I340
I155
tp1496
sg10
F1.6207547225168393
sa(dp1497
g2
(I125
I257
tp1498
sg4
(I105
I256
tp1499
sg6
(lp1500
I307
aI452
asg8
F1476884516380.149
sg9
(I243
I261
tp1501
sg10
F1.6207547225168393
sa(dp1502
g2
(I122
I260
tp1503
sg4
(I102
I259
tp1504
sg6
(lp1505
I304
aI455
asg8
F1476884516566.536
sg9
(I228
I277
tp1506
sg10
F1.6207547225168393
sa(dp1507
g2
(I125
I266
tp1508
sg4
(I105
I265
tp1509
sg6
(lp1510
I307
aI461
asg8
F1476884517035.785
sg9
(I203
I300
tp1511
sg10
F1.6207547225168393
sa(dp1512
g2
(I131
I274
tp1513
sg4
(I111
I273
tp1514
sg6
(lp1515
I313
aI469
asg8
F1476884517631.803
sg9
(I168
I334
tp1516
sg10
F1.6207547225168393
sa(dp1517
g2
(I124
I277
tp1518
sg4
(I104
I276
tp1519
sg6
(lp1520
I306
aI472
asg8
F1476884517776.5378
sg9
(I154
I344
tp1521
sg10
F1.6207547225168393
sa(dp1522
g2
(I130
I279
tp1523
sg4
(I110
I278
tp1524
sg6
(lp1525
I312
aI474
asg8
F1476884517953.458
sg9
(I144
I352
tp1526
sg10
F1.6207547225168393
sa(dp1527
g2
(I132
I282
tp1528
sg4
(I112
I281
tp1529
sg6
(lp1530
I314
aI477
asg8
F1476884518101.352
sg9
(I132
I362
tp1531
sg10
F1.6207547225168393
sa(dp1532
g2
(I129
I284
tp1533
sg4
(I109
I283
tp1534
sg6
(lp1535
I311
aI479
asg8
F1476884518261.666
sg9
(I128
I365
tp1536
sg10
F1.6207547225168393
sa(dp1537
g2
(I138
I293
tp1538
sg4
(I118
I292
tp1539
sg6
(lp1540
I320
aI488
asg8
F1476884518405.015
sg9
(I108
I380
tp1541
sg10
F1.6207547225168393
sa(dp1542
g2
(I141
I300
tp1543
sg4
(I121
I299
tp1544
sg6
(lp1545
I323
aI495
asg8
F1476884518747.601
sg9
(I90
I393
tp1546
sg10
F1.6207547225168393
sa(dp1547
g2
(I146
I312
tp1548
sg4
(I126
I311
tp1549
sg6
(lp1550
I328
aI507
asg8
F1476884519642.973
sg9
(I51
I419
tp1551
sg10
F1.6207547225168393
sa(dp1552
g2
(I154
I323
tp1553
sg4
(I134
I322
tp1554
sg6
(lp1555
I336
aI518
asg8
F1476884520131.02
sg9
(I31
I429
tp1556
sg10
F1.6207547225168393
sa(dp1557
g2
(I159
I334
tp1558
sg4
(I139
I333
tp1559
sg6
(lp1560
I341
aI529
asg8
F1476884520634.1099
sg9
(I21
I435
tp1561
sg10
F1.6207547225168393
sa(dp1562
g2
(I164
I340
tp1563
sg4
(I144
I339
tp1564
sg6
(lp1565
I346
aI535
asg8
F1476884521091.066
sg9
(I16
I437
tp1566
sg10
F1.6207547225168393
sa(dp1567
g2
(I170
I353
tp1568
sg4
(I150
I352
tp1569
sg6
(lp1570
I352
aI548
asg8
F1476884521548.916
sg9
(I14
I441
tp1571
sg10
F1.6207547225168393
sa(dp1572
g2
(I173
I359
tp1573
sg4
(I153
I358
tp1574
sg6
(lp1575
I355
aI554
asg8
F1476884521946.345
sg9
(I14
I440
tp1576
sg10
F1.6207547225168393
sa(dp1577
g2
(I175
I361
tp1578
sg4
(I155
I360
tp1579
sg6
(lp1580
I357
aI556
asg8
F1476884522077.369
sg9
(I14
I441
tp1581
sg10
F1.6207547225168393
sa(dp1582
g2
(I179
I367
tp1583
sg4
(I159
I366
tp1584
sg6
(lp1585
I361
aI562
asg8
F1476884522367.504
sg9
(I14
I441
tp1586
sg10
F1.6207547225168393
sa(dp1587
g2
(I184
I379
tp1588
sg4
(I164
I378
tp1589
sg6
(lp1590
I366
aI574
asg8
F1476884522994.695
sg9
(I13
I441
tp1591
sg10
F1.6207547225168393
sa(dp1592
g2
(I188
I388
tp1593
sg4
(I168
I387
tp1594
sg6
(lp1595
I370
aI583
asg8
F1476884523331.6172
sg9
(I13
I441
tp1596
sg10
F1.6207547225168393
sa(dp1597
g2
(I197
I398
tp1598
sg4
(I177
I397
tp1599
sg6
(lp1600
I379
aI593
asg8
F1476884523922.9219
sg9
(I13
I441
tp1601
sg10
F1.6207547225168393
sa(dp1602
g2
(I195
I401
tp1603
sg4
(I175
I400
tp1604
sg6
(lp1605
I377
aI596
asg8
F1476884524079.174
sg9
(I13
I440
tp1606
sg10
F1.6207547225168393
sa(dp1607
g2
(I198
I410
tp1608
sg4
(I178
I409
tp1609
sg6
(lp1610
I380
aI605
asg8
F1476884524342.136
sg9
(I13
I441
tp1611
sg10
F1.6207547225168393
sa(dp1612
g2
(I213
I422
tp1613
sg4
(I193
I421
tp1614
sg6
(lp1615
I395
aI617
asg8
F1476884524925.823
sg9
(I13
I440
tp1616
sg10
F1.6207547225168393
sa(dp1617
g2
(I207
I430
tp1618
sg4
(I187
I429
tp1619
sg6
(lp1620
I389
aI625
asg8
F1476884525613.7048
sg9
(I13
I440
tp1621
sg10
F1.6207547225168393
sa(dp1622
g2
(I209
I430
tp1623
sg4
(I189
I429
tp1624
sg6
(lp1625
I391
aI625
asg8
F1476884525794.332
sg9
(I14
I441
tp1626
sg10
F1.6207547225168393
sa(dp1627
g2
(I208
I435
tp1628
sg4
(I188
I434
tp1629
sg6
(lp1630
I390
aI630
asg8
F1476884526544.771
sg9
(I63
I453
tp1631
sg10
F1.6207547225168393
sa(dp1632
g2
(I210
I433
tp1633
sg4
(I190
I432
tp1634
sg6
(lp1635
I392
aI628
asg8
F1476884526686.359
sg9
Nsg10
F1.6207547225168393
sa(dp1636
g2
(I214
I433
tp1637
sg4
(I194
I432
tp1638
sg6
(lp1639
I396
aI628
asg8
F1476884527324.5188
sg9
Nsg10
F1.6207547225168393
sa(dp1640
g2
(I211
I436
tp1641
sg4
(I191
I435
tp1642
sg6
(lp1643
I393
aI631
asg8
F1476884527463.074
sg9
Nsg10
F1.6207547225168393
sa(dp1644
g2
(I215
I434
tp1645
sg4
(I205
I456
tp1646
sg6
(lp1647
I402
aI641
asg8
F1476884527617.332
sg9
Nsg10
F0.4266274931268761
sa(dp1648
g2
(I216
I432
tp1649
sg4
(I205
I456
tp1650
sg6
(lp1651
I402
aI640
asg8
F1476884527743.258
sg9
Nsg10
F0.4297622790966885
sa(dp1652
g2
(I216
I434
tp1653
sg4
(I208
I458
tp1654
sg6
(lp1655
I404
aI642
asg8
F1476884527869.693
sg9
Nsg10
F0.3217505543966422
sa(dp1656
g2
(I218
I439
tp1657
sg4
(I215
I462
tp1658
sg6
(lp1659
I408
aI646
asg8
F1476884527996.4458
sg9
Nsg10
F0.1297025371559121
sa(dp1660
g2
(I223
I438
tp1661
sg4
(I216
I461
tp1662
sg6
(lp1663
I411
aI645
asg8
F1476884528152.563
sg9
Nsg10
F0.29544083714372
sa(dp1664
g2
(I225
I441
tp1665
sg4
(I221
I463
tp1666
sg6
(lp1667
I415
aI648
asg8
F1476884528277.272
sg9
Nsg10
F0.17985349979247828
sa(dp1668
g2
(I224
I441
tp1669
sg4
(I220
I464
tp1670
sg6
(lp1671
I414
aI648
asg8
F1476884528411.391
sg9
Nsg10
F0.17219081452293902
sa(dp1672
g2
(I227
I439
tp1673
sg4
(I219
I462
tp1674
sg6
(lp1675
I415
aI646
asg8
F1476884528530.197
sg9
Nsg10
F0.3347368373168147
sa(dp1676
g2
(I226
I438
tp1677
sg4
(I219
I461
tp1678
sg6
(lp1679
I414
aI645
asg8
F1476884528653.72
sg9
(I220
I464
tp1680
sg10
F0.29544083714372
sa(dp1681
g2
(I221
I440
tp1682
sg4
(I201
I439
tp1683
sg6
(lp1684
I403
aI635
asg8
F1476884528876.22
sg9
(I229
I463
tp1685
sg10
F1.6207547225168393
sa(dp1686
g2
(I226
I437
tp1687
sg4
(I216
I460
tp1688
sg6
(lp1689
I413
aI644
asg8
F1476884529050.336
sg9
(I236
I462
tp1690
sg10
F0.41012734054149097
sa(dp1691
g2
(I227
I437
tp1692
sg4
(I207
I436
tp1693
sg6
(lp1694
I409
aI632
asg8
F1476884529241.641
sg9
(I239
I461
tp1695
sg10
F1.6207547225168393
sa(dp1696
g2
(I223
I443
tp1697
sg4
(I219
I464
tp1698
sg6
(lp1699
I413
aI649
asg8
F1476884529484.2551
sg9
(I248
I459
tp1700
sg10
F0.18822150530477075
sa(dp1701
g2
(I228
I440
tp1702
sg4
(I219
I463
tp1703
sg6
(lp1704
I415
aI647
asg8
F1476884529752.4841
sg9
(I252
I458
tp1705
sg10
F0.372987721800061
sa(dp1706
g2
(I228
I439
tp1707
sg4
(I221
I462
tp1708
sg6
(lp1709
I416
aI646
asg8
F1476884530111.792
sg9
(I255
I457
tp1710
sg10
F0.29544083714372
sa(dp1711
g2
(I229
I439
tp1712
sg4
(I220
I462
tp1713
sg6
(lp1714
I416
aI646
asg8
F1476884530361.182
sg9
(I256
I457
tp1715
sg10
F0.372987721800061
sa(dp1716
g2
(I226
I441
tp1717
sg4
(I219
I464
tp1718
sg6
(lp1719
I414
aI648
asg8
F1476884530728.8662
sg9
(I259
I456
tp1720
sg10
F0.29544083714372
sa(dp1721
g2
(I222
I444
tp1722
sg4
(I219
I465
tp1723
sg6
(lp1724
I412
aI650
asg8
F1476884530942.0781
sg9
(I262
I455
tp1725
sg10
F0.1418970546041639
sa(dp1726
g2
(I226
I441
tp1727
sg4
(I218
I463
tp1728
sg6
(lp1729
I414
aI648
asg8
F1476884531172.926
sg9
(I271
I452
tp1730
sg10
F0.348771003583907
sa(dp1731
g2
(I225
I443
tp1732
sg4
(I219
I465
tp1733
sg6
(lp1734
I414
aI650
asg8
F1476884531382.121
sg9
(I274
I450
tp1735
sg10
F0.2662520491509253
sa(dp1736
g2
(I230
I440
tp1737
sg4
(I219
I463
tp1738
sg6
(lp1739
I416
aI647
asg8
F1476884531545.9622
sg9
(I278
I448
tp1740
sg10
F0.44610554894340365
sa(dp1741
g2
(I227
I444
tp1742
sg4
(I223
I466
tp1743
sg6
(lp1744
I417
aI651
asg8
F1476884531714.269
sg9
(I280
I446
tp1745
sg10
F0.17985349979247828
sa(dp1746
g2
(I234
I442
tp1747
sg4
(I214
I441
tp1748
sg6
(lp1749
I416
aI637
asg8
F1476884532085.772
sg9
(I281
I446
tp1750
sg10
F1.6207547225168393
sa(dp1751
g2
(I232
I445
tp1752
sg4
(I226
I468
tp1753
sg6
(lp1754
I421
aI652
asg8
F1476884532228.953
sg9
(I281
I446
tp1755
sg10
F0.2551823906208184
sa(dp1756
g2
(I235
I443
tp1757
sg4
(I227
I466
tp1758
sg6
(lp1759
I423
aI650
asg8
F1476884532429.048
sg9
(I281
I446
tp1760
sg10
F0.3347368373168147
sa(dp1761
g2
(I237
I444
tp1762
sg4
(I227
I467
tp1763
sg6
(lp1764
I424
aI651
asg8
F1476884532720.011
sg9
(I280
I447
tp1765
sg10
F0.41012734054149097
sa(dp1766
g2
(I238
I445
tp1767
sg4
(I228
I468
tp1768
sg6
(lp1769
I425
aI652
asg8
F1476884533243.0251
sg9
(I280
I447
tp1770
sg10
F0.41012734054149097
sa(dp1771
g2
(I239
I447
tp1772
sg4
(I232
I470
tp1773
sg6
(lp1774
I427
aI654
asg8
F1476884533557.933
sg9
(I280
I447
tp1775
sg10
F0.29544083714372
sa(dp1776
g2
(I239
I446
tp1777
sg4
(I231
I469
tp1778
sg6
(lp1779
I427
aI653
asg8
F1476884533692.394
sg9
(I281
I446
tp1780
sg10
F0.3347368373168147
sa(dp1781
g2
(I238
I449
tp1782
sg4
(I234
I471
tp1783
sg6
(lp1784
I428
aI656
asg8
F1476884533985.495
sg9
(I280
I447
tp1785
sg10
F0.17985349979247828
sa(dp1786
g2
(I239
I450
tp1787
sg4
(I219
I449
tp1788
sg6
(lp1789
I421
aI645
asg8
F1476884534308.926
sg9
(I280
I447
tp1790
sg10
F1.6207547225168393
sa(dp1791
g2
(I241
I449
tp1792
sg4
(I235
I471
tp1793
sg6
(lp1794
I430
aI656
asg8
F1476884534435.2578
sg9
(I282
I447
tp1795
sg10
F0.2662520491509253
sa(dp1796
g2
(I245
I448
tp1797
sg4
(I234
I472
tp1798
sg6
(lp1799
I431
aI656
asg8
F1476884534954.1309
sg9
(I290
I450
tp1800
sg10
F0.4297622790966885
sa(dp1801
g2
(I245
I449
tp1802
sg4
(I236
I472
tp1803
sg6
(lp1804
I432
aI656
asg8
F1476884535151.576
sg9
(I291
I450
tp1805
sg10
F0.372987721800061
sa(dp1806
g2
(I246
I450
tp1807
sg4
(I239
I473
tp1808
sg6
(lp1809
I434
aI657
asg8
F1476884535542.261
sg9
(I295
I453
tp1810
sg10
F0.29544083714372
sa(dp1811
g2
(I247
I449
tp1812
sg4
(I239
I473
tp1813
sg6
(lp1814
I435
aI657
asg8
F1476884535687.897
sg9
(I297
I452
tp1815
sg10
F0.3217505543966422
sa(dp1816
g2
(I248
I450
tp1817
sg4
(I239
I474
tp1818
sg6
(lp1819
I435
aI658
asg8
F1476884536004.6501
sg9
(I299
I452
tp1820
sg10
F0.35877067027057225
sa(dp1821
g2
(I251
I450
tp1822
sg4
(I239
I474
tp1823
sg6
(lp1824
I437
aI658
asg8
F1476884536142.656
sg9
(I299
I452
tp1825
sg10
F0.4636476090008061
sa(dp1826
g2
(I250
I451
tp1827
sg4
(I242
I475
tp1828
sg6
(lp1829
I438
aI659
asg8
F1476884536454.18
sg9
(I297
I452
tp1830
sg10
F0.3217505543966422
sa(dp1831
g2
(I253
I451
tp1832
sg4
(I244
I475
tp1833
sg6
(lp1834
I440
aI659
asg8
F1476884536612.918
sg9
(I297
I452
tp1835
sg10
F0.35877067027057225
sa(dp1836
g2
(I254
I452
tp1837
sg4
(I234
I451
tp1838
sg6
(lp1839
I436
aI647
asg8
F1476884536762.718
sg9
(I297
I451
tp1840
sg10
F1.6207547225168393
sa(dp1841
g2
(I254
I453
tp1842
sg4
(I234
I452
tp1843
sg6
(lp1844
I436
aI648
asg8
F1476884536923.603
sg9
(I297
I452
tp1845
sg10
F1.6207547225168393
sa(dp1846
g2
(I254
I455
tp1847
sg4
(I234
I454
tp1848
sg6
(lp1849
I436
aI650
asg8
F1476884537087.541
sg9
(I297
I452
tp1850
sg10
F1.6207547225168393
sa(dp1851
g2
(I251
I457
tp1852
sg4
(I231
I456
tp1853
sg6
(lp1854
I433
aI652
asg8
F1476884537272.075
sg9
(I297
I453
tp1855
sg10
F1.6207547225168393
sa(dp1856
g2
(I251
I461
tp1857
sg4
(I231
I460
tp1858
sg6
(lp1859
I433
aI656
asg8
F1476884537540.729
sg9
Nsg10
F1.6207547225168393
sa(dp1860
g2
(I248
I462
tp1861
sg4
(I228
I461
tp1862
sg6
(lp1863
I430
aI657
asg8
F1476884540622.8088
sg9
(I269
I515
tp1864
sg10
F1.6207547225168393
sa(dp1865
g2
(I254
I456
tp1866
sg4
(I234
I455
tp1867
sg6
(lp1868
I436
aI651
asg8
F1476884541091.271
sg9
(I263
I506
tp1869
sg10
F1.6207547225168393
sa(dp1870
g2
(I249
I460
tp1871
sg4
(I229
I459
tp1872
sg6
(lp1873
I431
aI655
asg8
F1476884541338.114
sg9
(I260
I502
tp1874
sg10
F1.6207547225168393
sa(dp1875
g2
(I257
I457
tp1876
sg4
(I249
I481
tp1877
sg6
(lp1878
I445
aI665
asg8
F1476884541553.901
sg9
(I257
I496
tp1879
sg10
F0.3217505543966422
sa(dp1880
g2
(I255
I457
tp1881
sg4
(I250
I481
tp1882
sg6
(lp1883
I444
aI665
asg8
F1476884541751.673
sg9
Nsg10
F0.2053953891897674
sa(dp1884
g2
(I251
I455
tp1885
sg4
(I249
I480
tp1886
sg6
(lp1887
I442
aI663
asg8
F1476884541952.956
sg9
Nsg10
F0.07982998571223732
sa(dp1888
g2
(I251
I454
tp1889
sg4
(I250
I480
tp1890
sg6
(lp1891
I442
aI663
asg8
F1476884542122.426
sg9
(I246
I517
tp1892
sg10
F0.03844259002118799
sa(dp1893
g2
(I248
I456
tp1894
sg4
(I252
I480
tp1895
sg6
(lp1896
I442
aI664
asg8
F1476884542309.9402
sg9
(I246
I520
tp1897
sg10
F6.118036629764959
sa(dp1898
g2
(I245
I456
tp1899
sg4
(I255
I478
tp1900
sg6
(lp1901
I442
aI663
asg8
F1476884542494.3088
sg9
(I244
I540
tp1902
sg10
F5.85655781405271
sa(dp1903
g2
(I242
I459
tp1904
sg4
(I257
I479
tp1905
sg6
(lp1906
I441
aI665
asg8
F1476884542678.523
sg9
(I244
I544
tp1907
sg10
F5.639684198386302
sa(dp1908
g2
(I242
I456
tp1909
sg4
(I257
I475
tp1910
sg6
(lp1911
I441
aI661
asg8
F1476884542846.7878
sg9
(I244
I553
tp1912
sg10
F5.614895888349002
sa(dp1913
g2
(I241
I458
tp1914
sg4
(I257
I474
tp1915
sg6
(lp1916
I441
aI662
asg8
F1476884542998.2249
sg9
(I243
I559
tp1917
sg10
F5.497787143782138
sa(dp1918
g2
(I241
I460
tp1919
sg4
(I260
I475
tp1920
sg6
(lp1921
I442
aI663
asg8
F1476884543178.4958
sg9
(I246
I565
tp1922
sg10
F5.380678399215274
sa(dp1923
g2
(I240
I469
tp1924
sg4
(I260
I470
tp1925
sg6
(lp1926
I442
aI665
asg8
F1476884543482.9458
sg9
(I261
I568
tp1927
sg10
F4.762347376106632
sa(dp1928
g2
(I236
I465
tp1929
sg4
(I256
I466
tp1930
sg6
(lp1931
I438
aI661
asg8
F1476884543652.088
sg9
(I276
I572
tp1932
sg10
F4.762347376106632
sa(dp1933
g2
(I241
I461
tp1934
sg4
(I261
I462
tp1935
sg6
(lp1936
I443
aI657
asg8
F1476884544485.9878
sg9
(I301
I573
tp1937
sg10
F4.762347376106632
sa(dp1938
g2
(I236
I461
tp1939
sg4
(I256
I462
tp1940
sg6
(lp1941
I438
aI657
asg8
F1476884544825.355
sg9
Nsg10
F4.762347376106632
sa(dp1942
g2
(I241
I459
tp1943
sg4
(I261
I460
tp1944
sg6
(lp1945
I443
aI655
asg8
F1476884545007.936
sg9
(I297
I577
tp1946
sg10
F4.762347376106632
sa(dp1947
g2
(I238
I458
tp1948
sg4
(I258
I459
tp1949
sg6
(lp1950
I440
aI654
asg8
F1476884545173.883
sg9
Nsg10
F4.762347376106632
sa(dp1951
g2
(I241
I479
tp1952
sg4
(I255
I460
tp1953
sg6
(lp1954
I440
aI665
asg8
F1476884545322.8801
sg9
Nsg10
F3.776619388980107
sa(dp1955
g2
(I246
I477
tp1956
sg4
(I259
I455
tp1957
sg6
(lp1958
I444
aI662
asg8
F1476884545461.153
sg9
Nsg10
F3.6753008452290548
sa(dp1959
g2
(I247
I478
tp1960
sg4
(I252
I456
tp1961
sg6
(lp1962
I441
aI663
asg8
F1476884545640.274
sg9
Nsg10
F3.365069254730426
sa(dp1963
g2
(I248
I480
tp1964
sg4
(I250
I458
tp1965
sg6
(lp1966
I441
aI665
asg8
F1476884545796.5
sg9
Nsg10
F3.232252540790538
sa(dp1967
g2
(I250
I478
tp1968
sg4
(I253
I454
tp1969
sg6
(lp1970
I443
aI662
asg8
F1476884545933.688
sg9
Nsg10
F3.2659476481365544
sa(dp1971
g2
(I253
I479
tp1972
sg4
(I249
I457
tp1973
sg6
(lp1974
I443
aI664
asg8
F1476884546076.67
sg9
Nsg10
F2.961739153797315
sa(dp1975
g2
(I254
I477
tp1976
sg4
(I251
I453
tp1977
sg6
(lp1978
I444
aI661
asg8
F1476884546251.355
sg9
Nsg10
F3.017237659043032
sa(dp1979
g2
(I250
I478
tp1980
sg4
(I247
I454
tp1981
sg6
(lp1982
I440
aI662
asg8
F1476884546412.19
sg9
Nsg10
F3.017237659043032
sa(dp1983
g2
(I252
I482
tp1984
sg4
(I245
I459
tp1985
sg6
(lp1986
I440
aI666
asg8
F1476884546572.83
sg9
Nsg10
F2.8461518164460733
sa(dp1987
g2
(I251
I484
tp1988
sg4
(I244
I462
tp1989
sg6
(lp1990
I439
aI669
asg8
F1476884546727.33
sg9
Nsg10
F2.833539872566017
sa(dp1991
g2
(I248
I484
tp1992
sg4
(I245
I460
tp1993
sg6
(lp1994
I438
aI668
asg8
F1476884546943.351
sg9
Nsg10
F3.017237659043032
sa(dp1995
g2
(I250
I484
tp1996
sg4
(I245
I461
tp1997
sg6
(lp1998
I439
aI668
asg8
F1476884547114.368
sg9
Nsg10
F2.9275319700259717
sa(dp1999
g2
(I252
I487
tp2000
sg4
(I243
I466
tp2001
sg6
(lp2002
I439
aI672
asg8
F1476884547362.005
sg9
Nsg10
F2.7367008673047097
sa(dp2003
g2
(I249
I488
tp2004
sg4
(I244
I465
tp2005
sg6
(lp2006
I438
aI672
asg8
F1476884547554.3
sg9
Nsg10
F2.9275319700259717
sa(dp2007
g2
(I245
I484
tp2008
sg4
(I249
I459
tp2009
sg6
(lp2010
I439
aI667
asg8
F1476884547697.29
sg9
Nsg10
F3.3002479157761946
sa(dp2011
g2
(I247
I485
tp2012
sg4
(I247
I460
tp2013
sg6
(lp2014
I439
aI668
asg8
F1476884547836.223
sg9
Nsg10
F3.141592653589793
sa(dp2015
g2
(I245
I484
tp2016
sg4
(I250
I460
tp2017
sg6
(lp2018
I439
aI668
asg8
F1476884548008.917
sg9
Nsg10
F3.3469880427795604
sa(dp2019
g2
(I244
I483
tp2020
sg4
(I253
I459
tp2021
sg6
(lp2022
I440
aI667
asg8
F1476884548143.517
sg9
Nsg10
F3.5003633238603653
sa(dp2023
g2
(I243
I485
tp2024
sg4
(I249
I464
tp2025
sg6
(lp2026
I438
aI670
asg8
F1476884548308.512
sg9
Nsg10
F3.4198923125949046
sa(dp2027
g2
(I240
I485
tp2028
sg4
(I247
I465
tp2029
sg6
(lp2030
I435
aI671
asg8
F1476884548458.477
sg9
Nsg10
F3.4782674729765204
sa(dp2031
g2
(I240
I467
tp2032
sg4
(I260
I468
tp2033
sg6
(lp2034
I442
aI663
asg8
F1476884549542.207
sg9
Nsg10
F4.762347376106632
sa(dp2035
g2
(I235
I469
tp2036
sg4
(I255
I470
tp2037
sg6
(lp2038
I437
aI665
asg8
F1476884549691.948
sg9
Nsg10
F4.762347376106632
sa(dp2039
g2
(I236
I469
tp2040
sg4
(I256
I470
tp2041
sg6
(lp2042
I438
aI665
asg8
F1476884549921.8381
sg9
Nsg10
F4.762347376106632
sa(dp2043
g2
(I241
I473
tp2044
sg4
(I261
I474
tp2045
sg6
(lp2046
I443
aI669
asg8
F1476884550089.694
sg9
Nsg10
F4.762347376106632
sa(dp2047
g2
(I240
I476
tp2048
sg4
(I260
I477
tp2049
sg6
(lp2050
I442
aI672
asg8
F1476884550312.52
sg9
Nsg10
F4.762347376106632
sa(dp2051
g2
(I237
I475
tp2052
sg4
(I257
I476
tp2053
sg6
(lp2054
I439
aI671
asg8
F1476884550490.743
sg9
Nsg10
F4.762347376106632
sa(dp2055
g2
(I243
I463
tp2056
sg4
(I261
I478
tp2057
sg6
(lp2058
I444
aI666
asg8
F1476884550641.987
sg9
Nsg10
F5.407127256581393
sa(dp2059
g2
(I242
I463
tp2060
sg4
(I262
I479
tp2061
sg6
(lp2062
I444
aI667
asg8
F1476884550780.165
sg9
Nsg10
F5.387129922608242
sa(dp2063
g2
(I245
I457
tp2064
sg4
(I257
I477
tp2065
sg6
(lp2066
I443
aI663
asg8
F1476884550963.4321
sg9
Nsg10
F5.742765806909002
sa(dp2067
g2
(I246
I458
tp2068
sg4
(I262
I478
tp2069
sg6
(lp2070
I446
aI664
asg8
F1476884551133.153
sg9
Nsg10
F5.608444364956034
sa(dp2071
g2
(I252
I451
tp2072
sg4
(I262
I472
tp2073
sg6
(lp2074
I449
aI657
asg8
F1476884551308.9001
sg9
Nsg10
F5.838766097278487
sa(dp2075
g2
(I253
I450
tp2076
sg4
(I263
I472
tp2077
sg6
(lp2078
I450
aI657
asg8
F1476884551440.082
sg9
Nsg10
F5.85655781405271
sa(dp2079
g2
(I258
I452
tp2080
sg4
(I270
I473
tp2081
sg6
(lp2082
I456
aI658
asg8
F1476884551613.3052
sg9
Nsg10
F5.764039192933064
sa(dp2083
g2
(I261
I447
tp2084
sg4
(I268
I470
tp2085
sg6
(lp2086
I456
aI654
asg8
F1476884551774.7778
sg9
Nsg10
F5.987744470035866
sa(dp2087
g2
(I264
I446
tp2088
sg4
(I274
I469
tp2089
sg6
(lp2090
I461
aI653
asg8
F1476884551929.2021
sg9
Nsg10
F5.873057966638095
sa(dp2091
g2
(I264
I448
tp2092
sg4
(I278
I470
tp2093
sg6
(lp2094
I463
aI655
asg8
F1476884552076.3691
sg9
Nsg10
F5.71645608965608
sa(dp2095
g2
(I269
I444
tp2096
sg4
(I279
I467
tp2097
sg6
(lp2098
I466
aI651
asg8
F1476884552260.958
sg9
Nsg10
F5.873057966638095
sa(dp2099
g2
(I272
I441
tp2100
sg4
(I282
I464
tp2101
sg6
(lp2102
I469
aI648
asg8
F1476884552438.387
sg9
Nsg10
F5.873057966638095
sa(dp2103
g2
(I271
I444
tp2104
sg4
(I288
I464
tp2105
sg6
(lp2106
I471
aI650
asg8
F1476884552582.4749
sg9
Nsg10
F5.578691242937369
sa(dp2107
g2
(I279
I437
tp2108
sg4
(I288
I459
tp2109
sg6
(lp2110
I475
aI644
asg8
F1476884552772.232
sg9
Nsg10
F5.89486658900712
sa(dp2111
g2
(I277
I438
tp2112
sg4
(I294
I457
tp2113
sg6
(lp2114
I477
aI643
asg8
F1476884552934.9639
sg9
Nsg10
F5.553285649027854
sa(dp2115
g2
(I280
I436
tp2116
sg4
(I296
I455
tp2117
sg6
(lp2118
I480
aI641
asg8
F1476884553120.6182
sg9
Nsg10
F5.583292437460343
sa(dp2119
g2
(I282
I432
tp2120
sg4
(I294
I452
tp2121
sg6
(lp2122
I480
aI638
asg8
F1476884553320.8
sg9
Nsg10
F5.742765806909002
sa(dp2123
g2
(I284
I431
tp2124
sg4
(I300
I450
tp2125
sg6
(lp2126
I484
aI636
asg8
F1476884553487.8508
sg9
Nsg10
F5.583292437460343
sa(dp2127
g2
(I288
I429
tp2128
sg4
(I303
I448
tp2129
sg6
(lp2130
I487
aI634
asg8
F1476884553659.958
sg9
Nsg10
F5.614895888349002
sa(dp2131
g2
(I290
I426
tp2132
sg4
(I303
I446
tp2133
sg6
(lp2134
I488
aI632
asg8
F1476884553811.495
sg9
Nsg10
F5.706810086588402
sa(dp2135
g2
(I293
I422
tp2136
sg4
(I307
I442
tp2137
sg6
(lp2138
I492
aI628
asg8
F1476884553975.7522
sg9
Nsg10
F5.672459342790377
sa(dp2139
g2
(I298
I420
tp2140
sg4
(I311
I441
tp2141
sg6
(lp2142
I496
aI626
asg8
F1476884554113.925
sg9
Nsg10
F5.728877810978035
sa(dp2143
g2
(I301
I416
tp2144
sg4
(I312
I438
tp2145
sg6
(lp2146
I498
aI623
asg8
F1476884554276.123
sg9
Nsg10
F5.81953769817878
sa(dp2147
g2
(I301
I417
tp2148
sg4
(I318
I437
tp2149
sg6
(lp2150
I501
aI623
asg8
F1476884554401.487
sg9
Nsg10
F5.578691242937369
sa(dp2151
g2
(I307
I411
tp2152
sg4
(I320
I430
tp2153
sg6
(lp2154
I505
aI616
asg8
F1476884554572.731
sg9
Nsg10
F5.683135093777833
sa(dp2155
g2
(I309
I413
tp2156
sg4
(I328
I431
tp2157
sg6
(lp2158
I510
aI618
asg8
F1476884554721.914
sg9
Nsg10
F5.470766694594873
sa(dp2159
g2
(I310
I412
tp2160
sg4
(I329
I430
tp2161
sg6
(lp2162
I511
aI617
asg8
F1476884554895.959
sg9
Nsg10
F5.470766694594873
sa(dp2163
g2
(I313
I407
tp2164
sg4
(I328
I427
tp2165
sg6
(lp2166
I512
aI613
asg8
F1476884555044.027
sg9
Nsg10
F5.639684198386302
sa(dp2167
g2
(I316
I403
tp2168
sg4
(I328
I423
tp2169
sg6
(lp2170
I514
aI609
asg8
F1476884555233.0881
sg9
Nsg10
F5.742765806909002
sa(dp2171
g2
(I318
I404
tp2172
sg4
(I335
I423
tp2173
sg6
(lp2174
I518
aI609
asg8
F1476884555385.9812
sg9
Nsg10
F5.553285649027854
sa(dp2175
g2
(I320
I402
tp2176
sg4
(I335
I422
tp2177
sg6
(lp2178
I519
aI608
asg8
F1476884555528.168
sg9
Nsg10
F5.639684198386302
sa(dp2179
g2
(I326
I396
tp2180
sg4
(I337
I418
tp2181
sg6
(lp2182
I523
aI603
asg8
F1476884555667.438
sg9
Nsg10
F5.81953769817878
sa(dp2183
g2
(I327
I397
tp2184
sg4
(I343
I418
tp2185
sg6
(lp2186
I527
aI603
asg8
F1476884555880.407
sg9
Nsg10
F5.632108585735106
sa(dp2187
g2
(I329
I396
tp2188
sg4
(I344
I415
tp2189
sg6
(lp2190
I528
aI601
asg8
F1476884556042.69
sg9
Nsg10
F5.614895888349002
sa.