(lp0
(dp1
S'Right_centre'
p2
(I305
I298
tp3
sS'Left_centre'
p4
(I302
I279
tp5
sS'Location'
p6
(lp7
I303
aI288
asS'Time'
p8
F1476791516608.749
sS'Ball_centre'
p9
(I357
I172
tp10
sS'Heading'
p11
F2.984990776607778
sa(dp12
g2
(I305
I298
tp13
sg4
(I302
I279
tp14
sg6
(lp15
I303
aI288
asg8
F1476791516735.23
sg9
(I373
I177
tp16
sg11
F2.984990776607778
sa(dp17
g2
(I306
I299
tp18
sg4
(I303
I279
tp19
sg6
(lp20
I304
aI289
asg8
F1476791516799.726
sg9
(I381
I179
tp21
sg11
F2.992702705980296
sa(dp22
g2
(I305
I299
tp23
sg4
(I302
I279
tp24
sg6
(lp25
I303
aI289
asg8
F1476791516861.375
sg9
(I351
I168
tp26
sg11
F2.992702705980296
sa(dp27
g2
(I306
I299
tp28
sg4
(I303
I279
tp29
sg6
(lp30
I304
aI289
asg8
F1476791516915.177
sg9
(I378
I179
tp31
sg11
F2.992702705980296
sa(dp32
g2
(I305
I299
tp33
sg4
(I302
I279
tp34
sg6
(lp35
I303
aI289
asg8
F1476791516978.57
sg9
(I364
I178
tp36
sg11
F2.992702705980296
sa(dp37
g2
(I305
I298
tp38
sg4
(I302
I279
tp39
sg6
(lp40
I303
aI288
asg8
F1476791517050.782
sg9
(I363
I171
tp41
sg11
F2.984990776607778
sa(dp42
g2
(I306
I299
tp43
sg4
(I302
I279
tp44
sg6
(lp45
I304
aI289
asg8
F1476791517113.218
sg9
(I380
I182
tp46
sg11
F2.9441970937399122
sa(dp47
g2
(I304
I298
tp48
sg4
(I302
I279
tp49
sg6
(lp50
I303
aI288
asg8
F1476791517174.3591
sg9
(I381
I177
tp51
sg11
F3.036715714859559
sa(dp52
g2
(I305
I298
tp53
sg4
(I303
I279
tp54
sg6
(lp55
I304
aI288
asg8
F1476791517236.573
sg9
(I379
I177
tp56
sg11
F3.036715714859559
sa(dp57
g2
(I306
I299
tp58
sg4
(I302
I279
tp59
sg6
(lp60
I304
aI289
asg8
F1476791517296.0588
sg9
(I371
I177
tp61
sg11
F2.9441970937399122
sa(dp62
g2
(I305
I298
tp63
sg4
(I303
I279
tp64
sg6
(lp65
I304
aI288
asg8
F1476791517360.886
sg9
(I357
I172
tp66
sg11
F3.036715714859559
sa(dp67
g2
(I305
I299
tp68
sg4
(I303
I279
tp69
sg6
(lp70
I304
aI289
asg8
F1476791517422.446
sg9
(I381
I178
tp71
sg11
F3.0419240010986313
sa(dp72
g2
(I305
I299
tp73
sg4
(I303
I279
tp74
sg6
(lp75
I304
aI289
asg8
F1476791517480.488
sg9
(I358
I181
tp76
sg11
F3.0419240010986313
sa(dp77
g2
(I305
I298
tp78
sg4
(I302
I279
tp79
sg6
(lp80
I303
aI288
asg8
F1476791517534.872
sg9
(I354
I189
tp81
sg11
F2.984990776607778
sa(dp82
g2
(I305
I299
tp83
sg4
(I302
I279
tp84
sg6
(lp85
I303
aI289
asg8
F1476791517597.981
sg9
(I358
I171
tp86
sg11
F2.992702705980296
sa(dp87
g2
(I305
I298
tp88
sg4
(I303
I279
tp89
sg6
(lp90
I304
aI288
asg8
F1476791517655.663
sg9
(I363
I173
tp91
sg11
F3.036715714859559
sa(dp92
g2
(I305
I299
tp93
sg4
(I302
I279
tp94
sg6
(lp95
I303
aI289
asg8
F1476791517742.197
sg9
(I347
I188
tp96
sg11
F2.992702705980296
sa(dp97
g2
(I305
I298
tp98
sg4
(I303
I279
tp99
sg6
(lp100
I304
aI288
asg8
F1476791517811.358
sg9
(I365
I184
tp101
sg11
F3.036715714859559
sa(dp102
g2
(I305
I299
tp103
sg4
(I303
I279
tp104
sg6
(lp105
I304
aI289
asg8
F1476791517890.475
sg9
(I382
I180
tp106
sg11
F3.0419240010986313
sa(dp107
g2
(I305
I298
tp108
sg4
(I303
I279
tp109
sg6
(lp110
I304
aI288
asg8
F1476791517958.3381
sg9
(I380
I178
tp111
sg11
F3.036715714859559
sa(dp112
g2
(I306
I299
tp113
sg4
(I302
I279
tp114
sg6
(lp115
I304
aI289
asg8
F1476791518037.153
sg9
(I383
I181
tp116
sg11
F2.9441970937399122
sa(dp117
g2
(I305
I298
tp118
sg4
(I302
I279
tp119
sg6
(lp120
I303
aI288
asg8
F1476791518110.311
sg9
(I382
I180
tp121
sg11
F2.984990776607778
sa(dp122
g2
(I305
I298
tp123
sg4
(I303
I279
tp124
sg6
(lp125
I304
aI288
asg8
F1476791518178.357
sg9
(I381
I177
tp126
sg11
F3.036715714859559
sa(dp127
g2
(I306
I299
tp128
sg4
(I303
I279
tp129
sg6
(lp130
I304
aI289
asg8
F1476791518261.2268
sg9
(I381
I181
tp131
sg11
F2.992702705980296
sa(dp132
g2
(I305
I298
tp133
sg4
(I302
I279
tp134
sg6
(lp135
I303
aI288
asg8
F1476791518347.6118
sg9
(I380
I181
tp136
sg11
F2.984990776607778
sa(dp137
g2
(I305
I298
tp138
sg4
(I302
I279
tp139
sg6
(lp140
I303
aI288
asg8
F1476791518415.6611
sg9
(I382
I178
tp141
sg11
F2.984990776607778
sa(dp142
g2
(I304
I298
tp143
sg4
(I302
I279
tp144
sg6
(lp145
I303
aI288
asg8
F1476791518477.289
sg9
(I249
I189
tp146
sg11
F3.036715714859559
sa(dp147
g2
(I305
I298
tp148
sg4
(I302
I279
tp149
sg6
(lp150
I303
aI288
asg8
F1476791518535.179
sg9
(I384
I182
tp151
sg11
F2.984990776607778
sa(dp152
g2
(I305
I298
tp153
sg4
(I303
I279
tp154
sg6
(lp155
I304
aI288
asg8
F1476791518589.219
sg9
(I381
I177
tp156
sg11
F3.036715714859559
sa(dp157
g2
(I305
I299
tp158
sg4
(I302
I279
tp159
sg6
(lp160
I303
aI289
asg8
F1476791518651.21
sg9
(I373
I175
tp161
sg11
F2.992702705980296
sa(dp162
g2
(I305
I298
tp163
sg4
(I302
I279
tp164
sg6
(lp165
I303
aI288
asg8
F1476791518703.2349
sg9
(I381
I179
tp166
sg11
F2.984990776607778
sa(dp167
g2
(I305
I299
tp168
sg4
(I302
I279
tp169
sg6
(lp170
I303
aI289
asg8
F1476791518756.703
sg9
(I361
I170
tp171
sg11
F2.992702705980296
sa(dp172
g2
(I305
I299
tp173
sg4
(I302
I279
tp174
sg6
(lp175
I303
aI289
asg8
F1476791518811.826
sg9
(I362
I176
tp176
sg11
F2.992702705980296
sa(dp177
g2
(I305
I298
tp178
sg4
(I303
I280
tp179
sg6
(lp180
I304
aI289
asg8
F1476791518878.3901
sg9
(I367
I177
tp181
sg11
F3.0309354324158977
sa(dp182
g2
(I305
I298
tp183
sg4
(I302
I279
tp184
sg6
(lp185
I303
aI288
asg8
F1476791518931.866
sg9
(I380
I180
tp186
sg11
F2.984990776607778
sa(dp187
g2
(I305
I298
tp188
sg4
(I302
I279
tp189
sg6
(lp190
I303
aI288
asg8
F1476791519000.187
sg9
(I361
I178
tp191
sg11
F2.984990776607778
sa(dp192
g2
(I304
I298
tp193
sg4
(I302
I279
tp194
sg6
(lp195
I303
aI288
asg8
F1476791519058.291
sg9
(I363
I176
tp196
sg11
F3.036715714859559
sa(dp197
g2
(I304
I299
tp198
sg4
(I303
I280
tp199
sg6
(lp200
I303
aI289
asg8
F1476791519108.5762
sg9
(I380
I177
tp201
sg11
F3.0890095919788516
sa(dp202
g2
(I305
I298
tp203
sg4
(I303
I279
tp204
sg6
(lp205
I304
aI288
asg8
F1476791519166.1328
sg9
(I359
I176
tp206
sg11
F3.036715714859559
sa(dp207
g2
(I305
I298
tp208
sg4
(I302
I279
tp209
sg6
(lp210
I303
aI288
asg8
F1476791519224.213
sg9
(I309
I209
tp211
sg11
F2.984990776607778
sa(dp212
g2
(I305
I298
tp213
sg4
(I302
I279
tp214
sg6
(lp215
I303
aI288
asg8
F1476791519292.206
sg9
(I370
I176
tp216
sg11
F2.984990776607778
sa(dp217
g2
(I305
I298
tp218
sg4
(I302
I279
tp219
sg6
(lp220
I303
aI288
asg8
F1476791519349.911
sg9
(I381
I179
tp221
sg11
F2.984990776607778
sa(dp222
g2
(I305
I298
tp223
sg4
(I302
I279
tp224
sg6
(lp225
I303
aI288
asg8
F1476791519414.9028
sg9
(I366
I181
tp226
sg11
F2.984990776607778
sa(dp227
g2
(I305
I298
tp228
sg4
(I302
I279
tp229
sg6
(lp230
I303
aI288
asg8
F1476791519482.856
sg9
(I303
I207
tp231
sg11
F2.984990776607778
sa(dp232
g2
(I305
I299
tp233
sg4
(I302
I279
tp234
sg6
(lp235
I303
aI289
asg8
F1476791519543.13
sg9
(I233
I157
tp236
sg11
F2.992702705980296
sa(dp237
g2
(I305
I299
tp238
sg4
(I302
I279
tp239
sg6
(lp240
I303
aI289
asg8
F1476791519608.87
sg9
(I382
I181
tp241
sg11
F2.992702705980296
sa(dp242
g2
(I305
I298
tp243
sg4
(I302
I279
tp244
sg6
(lp245
I303
aI288
asg8
F1476791519676.934
sg9
(I382
I180
tp246
sg11
F2.984990776607778
sa(dp247
g2
(I304
I298
tp248
sg4
(I303
I280
tp249
sg6
(lp250
I303
aI289
asg8
F1476791519748.6921
sg9
(I369
I175
tp251
sg11
F3.0860941483440762
sa(dp252
g2
(I305
I298
tp253
sg4
(I302
I279
tp254
sg6
(lp255
I303
aI288
asg8
F1476791519814.044
sg9
(I363
I179
tp256
sg11
F2.984990776607778
sa(dp257
g2
(I305
I298
tp258
sg4
(I302
I279
tp259
sg6
(lp260
I303
aI288
asg8
F1476791519877.379
sg9
(I380
I177
tp261
sg11
F2.984990776607778
sa(dp262
g2
(I305
I298
tp263
sg4
(I302
I279
tp264
sg6
(lp265
I303
aI288
asg8
F1476791519946.158
sg9
(I354
I172
tp266
sg11
F2.984990776607778
sa(dp267
g2
(I305
I298
tp268
sg4
(I302
I279
tp269
sg6
(lp270
I303
aI288
asg8
F1476791520015.1418
sg9
(I379
I177
tp271
sg11
F2.984990776607778
sa(dp272
g2
(I306
I298
tp273
sg4
(I303
I279
tp274
sg6
(lp275
I304
aI288
asg8
F1476791520086.416
sg9
(I366
I186
tp276
sg11
F2.984990776607778
sa(dp277
g2
(I305
I299
tp278
sg4
(I302
I279
tp279
sg6
(lp280
I303
aI289
asg8
F1476791520147.784
sg9
(I372
I176
tp281
sg11
F2.992702705980296
sa(dp282
g2
(I304
I298
tp283
sg4
(I302
I279
tp284
sg6
(lp285
I303
aI288
asg8
F1476791520203.1592
sg9
(I378
I178
tp286
sg11
F3.036715714859559
sa(dp287
g2
(I306
I299
tp288
sg4
(I303
I279
tp289
sg6
(lp290
I304
aI289
asg8
F1476791520264.014
sg9
(I374
I183
tp291
sg11
F2.992702705980296
sa(dp292
g2
(I305
I298
tp293
sg4
(I303
I279
tp294
sg6
(lp295
I304
aI288
asg8
F1476791520328.1929
sg9
(I362
I183
tp296
sg11
F3.036715714859559
sa(dp297
g2
(I306
I298
tp298
sg4
(I303
I279
tp299
sg6
(lp300
I304
aI288
asg8
F1476791520394.394
sg9
(I362
I181
tp301
sg11
F2.984990776607778
sa(dp302
g2
(I306
I299
tp303
sg4
(I302
I279
tp304
sg6
(lp305
I304
aI289
asg8
F1476791520449.377
sg9
(I239
I186
tp306
sg11
F2.9441970937399122
sa(dp307
g2
(I306
I299
tp308
sg4
(I302
I279
tp309
sg6
(lp310
I304
aI289
asg8
F1476791520503.9312
sg9
(I344
I192
tp311
sg11
F2.9441970937399122
sa(dp312
g2
(I305
I298
tp313
sg4
(I303
I279
tp314
sg6
(lp315
I304
aI288
asg8
F1476791520560.149
sg9
(I372
I176
tp316
sg11
F3.036715714859559
sa(dp317
g2
(I305
I298
tp318
sg4
(I302
I279
tp319
sg6
(lp320
I303
aI288
asg8
F1476791520616.06
sg9
(I362
I182
tp321
sg11
F2.984990776607778
sa(dp322
g2
(I305
I299
tp323
sg4
(I303
I279
tp324
sg6
(lp325
I304
aI289
asg8
F1476791520712.281
sg9
(I377
I178
tp326
sg11
F3.0419240010986313
sa(dp327
g2
(I305
I298
tp328
sg4
(I302
I279
tp329
sg6
(lp330
I303
aI288
asg8
F1476791520798.334
sg9
(I378
I177
tp331
sg11
F2.984990776607778
sa(dp332
g2
(I305
I299
tp333
sg4
(I302
I279
tp334
sg6
(lp335
I303
aI289
asg8
F1476791520889.152
sg9
(I373
I178
tp336
sg11
F2.992702705980296
sa(dp337
g2
(I306
I299
tp338
sg4
(I303
I279
tp339
sg6
(lp340
I304
aI289
asg8
F1476791520973.298
sg9
(I365
I183
tp341
sg11
F2.992702705980296
sa(dp342
g2
(I305
I298
tp343
sg4
(I302
I279
tp344
sg6
(lp345
I303
aI288
asg8
F1476791521071.059
sg9
(I363
I180
tp346
sg11
F2.984990776607778
sa(dp347
g2
(I305
I298
tp348
sg4
(I303
I280
tp349
sg6
(lp350
I304
aI289
asg8
F1476791521163.137
sg9
(I367
I189
tp351
sg11
F3.0309354324158977
sa(dp352
g2
(I305
I299
tp353
sg4
(I303
I279
tp354
sg6
(lp355
I304
aI289
asg8
F1476791521236.735
sg9
(I123
I18
tp356
sg11
F3.0419240010986313
sa(dp357
g2
(I306
I299
tp358
sg4
(I303
I279
tp359
sg6
(lp360
I304
aI289
asg8
F1476791521322.708
sg9
(I122
I14
tp361
sg11
F2.992702705980296
sa(dp362
g2
(I306
I299
tp363
sg4
(I302
I279
tp364
sg6
(lp365
I304
aI289
asg8
F1476791521410.312
sg9
(I354
I178
tp366
sg11
F2.9441970937399122
sa(dp367
g2
(I306
I299
tp368
sg4
(I303
I279
tp369
sg6
(lp370
I304
aI289
asg8
F1476791521501.185
sg9
(I371
I176
tp371
sg11
F2.992702705980296
sa(dp372
g2
(I305
I298
tp373
sg4
(I302
I279
tp374
sg6
(lp375
I303
aI288
asg8
F1476791521585.804
sg9
(I358
I177
tp376
sg11
F2.984990776607778
sa(dp377
g2
(I304
I299
tp378
sg4
(I302
I279
tp379
sg6
(lp380
I303
aI289
asg8
F1476791521668.4749
sg9
(I361
I180
tp381
sg11
F3.0419240010986313
sa(dp382
g2
(I305
I298
tp383
sg4
(I302
I279
tp384
sg6
(lp385
I303
aI288
asg8
F1476791521766.907
sg9
(I216
I9
tp386
sg11
F2.984990776607778
sa(dp387
g2
(I305
I298
tp388
sg4
(I302
I279
tp389
sg6
(lp390
I303
aI288
asg8
F1476791521852.237
sg9
(I360
I180
tp391
sg11
F2.984990776607778
sa(dp392
g2
(I306
I298
tp393
sg4
(I302
I279
tp394
sg6
(lp395
I304
aI288
asg8
F1476791521955.197
sg9
(I362
I171
tp396
sg11
F2.9340964271545906
sa(dp397
g2
(I305
I299
tp398
sg4
(I303
I279
tp399
sg6
(lp400
I304
aI289
asg8
F1476791522042.492
sg9
(I168
I5
tp401
sg11
F3.0419240010986313
sa(dp402
g2
(I305
I298
tp403
sg4
(I303
I279
tp404
sg6
(lp405
I304
aI288
asg8
F1476791522115.175
sg9
(I176
I6
tp406
sg11
F3.036715714859559
sa(dp407
g2
(I306
I299
tp408
sg4
(I302
I279
tp409
sg6
(lp410
I304
aI289
asg8
F1476791522194.5
sg9
(I209
I17
tp411
sg11
F2.9441970937399122
sa(dp412
g2
(I305
I299
tp413
sg4
(I302
I279
tp414
sg6
(lp415
I303
aI289
asg8
F1476791522273.8572
sg9
(I211
I15
tp416
sg11
F2.992702705980296
sa(dp417
g2
(I306
I299
tp418
sg4
(I302
I279
tp419
sg6
(lp420
I304
aI289
asg8
F1476791522367.7822
sg9
(I229
I24
tp421
sg11
F2.9441970937399122
sa(dp422
g2
(I305
I298
tp423
sg4
(I302
I279
tp424
sg6
(lp425
I303
aI288
asg8
F1476791522458.311
sg9
(I237
I26
tp426
sg11
F2.984990776607778
sa(dp427
g2
(I306
I299
tp428
sg4
(I302
I279
tp429
sg6
(lp430
I304
aI289
asg8
F1476791522547.021
sg9
(I260
I12
tp431
sg11
F2.9441970937399122
sa(dp432
g2
(I305
I299
tp433
sg4
(I302
I279
tp434
sg6
(lp435
I303
aI289
asg8
F1476791522636.6301
sg9
(I279
I23
tp436
sg11
F2.992702705980296
sa(dp437
g2
(I305
I299
tp438
sg4
(I302
I279
tp439
sg6
(lp440
I303
aI289
asg8
F1476791522733.126
sg9
(I305
I37
tp441
sg11
F2.992702705980296
sa(dp442
g2
(I305
I298
tp443
sg4
(I303
I279
tp444
sg6
(lp445
I304
aI288
asg8
F1476791522818.947
sg9
(I326
I45
tp446
sg11
F3.036715714859559
sa(dp447
g2
(I305
I298
tp448
sg4
(I303
I279
tp449
sg6
(lp450
I304
aI288
asg8
F1476791522907.462
sg9
(I391
I73
tp451
sg11
F3.036715714859559
sa(dp452
g2
(I305
I299
tp453
sg4
(I302
I279
tp454
sg6
(lp455
I303
aI289
asg8
F1476791523006.392
sg9
(I336
I45
tp456
sg11
F2.992702705980296
sa(dp457
g2
(I305
I299
tp458
sg4
(I303
I279
tp459
sg6
(lp460
I304
aI289
asg8
F1476791523107.025
sg9
(I157
I8
tp461
sg11
F3.0419240010986313
sa(dp462
g2
(I305
I298
tp463
sg4
(I302
I279
tp464
sg6
(lp465
I303
aI288
asg8
F1476791523191.293
sg9
(I346
I45
tp466
sg11
F2.984990776607778
sa(dp467
g2
(I305
I298
tp468
sg4
(I302
I279
tp469
sg6
(lp470
I303
aI288
asg8
F1476791523293.446
sg9
(I171
I14
tp471
sg11
F2.984990776607778
sa(dp472
g2
(I305
I298
tp473
sg4
(I302
I279
tp474
sg6
(lp475
I303
aI288
asg8
F1476791523379.293
sg9
(I373
I176
tp476
sg11
F2.984990776607778
sa(dp477
g2
(I305
I298
tp478
sg4
(I302
I279
tp479
sg6
(lp480
I303
aI288
asg8
F1476791523465.235
sg9
(I363
I175
tp481
sg11
F2.984990776607778
sa(dp482
g2
(I305
I298
tp483
sg4
(I303
I279
tp484
sg6
(lp485
I304
aI288
asg8
F1476791523551.2031
sg9
(I348
I67
tp486
sg11
F3.036715714859559
sa(dp487
g2
(I305
I298
tp488
sg4
(I303
I279
tp489
sg6
(lp490
I304
aI288
asg8
F1476791523632.159
sg9
(I352
I49
tp491
sg11
F3.036715714859559
sa(dp492
g2
(I306
I299
tp493
sg4
(I302
I279
tp494
sg6
(lp495
I304
aI289
asg8
F1476791523733.1182
sg9
(I349
I51
tp496
sg11
F2.9441970937399122
sa(dp497
g2
(I305
I299
tp498
sg4
(I303
I279
tp499
sg6
(lp500
I304
aI289
asg8
F1476791523822.4932
sg9
(I369
I176
tp501
sg11
F3.0419240010986313
sa(dp502
g2
(I305
I299
tp503
sg4
(I303
I279
tp504
sg6
(lp505
I304
aI289
asg8
F1476791523915.6648
sg9
(I335
I58
tp506
sg11
F3.0419240010986313
sa(dp507
g2
(I305
I299
tp508
sg4
(I302
I279
tp509
sg6
(lp510
I303
aI289
asg8
F1476791523991.8062
sg9
(I331
I58
tp511
sg11
F2.992702705980296
sa(dp512
g2
(I305
I298
tp513
sg4
(I303
I279
tp514
sg6
(lp515
I304
aI288
asg8
F1476791524086.14
sg9
(I369
I80
tp516
sg11
F3.036715714859559
sa(dp517
g2
(I305
I298
tp518
sg4
(I303
I279
tp519
sg6
(lp520
I304
aI288
asg8
F1476791524166.579
sg9
(I361
I83
tp521
sg11
F3.036715714859559
sa(dp522
g2
(I305
I298
tp523
sg4
(I303
I279
tp524
sg6
(lp525
I304
aI288
asg8
F1476791524246.227
sg9
(I270
I59
tp526
sg11
F3.036715714859559
sa(dp527
g2
(I305
I299
tp528
sg4
(I303
I279
tp529
sg6
(lp530
I304
aI289
asg8
F1476791524319.306
sg9
(I331
I80
tp531
sg11
F3.0419240010986313
sa(dp532
g2
(I305
I298
tp533
sg4
(I302
I279
tp534
sg6
(lp535
I303
aI288
asg8
F1476791524498.467
sg9
(I293
I66
tp536
sg11
F2.984990776607778
sa(dp537
g2
(I306
I299
tp538
sg4
(I302
I279
tp539
sg6
(lp540
I304
aI289
asg8
F1476791524562.6272
sg9
(I271
I52
tp541
sg11
F2.9441970937399122
sa(dp542
g2
(I306
I299
tp543
sg4
(I303
I279
tp544
sg6
(lp545
I304
aI289
asg8
F1476791524620.943
sg9
(I342
I174
tp546
sg11
F2.992702705980296
sa(dp547
g2
(I305
I299
tp548
sg4
(I302
I279
tp549
sg6
(lp550
I303
aI289
asg8
F1476791524688.415
sg9
(I352
I176
tp551
sg11
F2.992702705980296
sa(dp552
g2
(I305
I298
tp553
sg4
(I302
I279
tp554
sg6
(lp555
I303
aI288
asg8
F1476791524769.4148
sg9
(I245
I8
tp556
sg11
F2.984990776607778
sa(dp557
g2
(I306
I299
tp558
sg4
(I303
I279
tp559
sg6
(lp560
I304
aI289
asg8
F1476791524861.082
sg9
(I264
I31
tp561
sg11
F2.992702705980296
sa(dp562
g2
(I305
I298
tp563
sg4
(I303
I279
tp564
sg6
(lp565
I304
aI288
asg8
F1476791524949.44
sg9
(I156
I144
tp566
sg11
F3.036715714859559
sa(dp567
g2
(I306
I299
tp568
sg4
(I302
I279
tp569
sg6
(lp570
I304
aI289
asg8
F1476791525040.486
sg9
(I104
I138
tp571
sg11
F2.9441970937399122
sa(dp572
g2
(I305
I299
tp573
sg4
(I302
I279
tp574
sg6
(lp575
I303
aI289
asg8
F1476791525123.23
sg9
(I224
I158
tp576
sg11
F2.992702705980296
sa(dp577
g2
(I305
I299
tp578
sg4
(I302
I279
tp579
sg6
(lp580
I303
aI289
asg8
F1476791525215.6921
sg9
(I19
I112
tp581
sg11
F2.992702705980296
sa(dp582
g2
(I304
I299
tp583
sg4
(I302
I279
tp584
sg6
(lp585
I303
aI289
asg8
F1476791525318.502
sg9
(I160
I177
tp586
sg11
F3.0419240010986313
sa(dp587
g2
(I305
I299
tp588
sg4
(I303
I279
tp589
sg6
(lp590
I304
aI289
asg8
F1476791525586.4402
sg9
(I178
I153
tp591
sg11
F3.0419240010986313
sa(dp592
g2
(I305
I298
tp593
sg4
(I303
I279
tp594
sg6
(lp595
I304
aI288
asg8
F1476791525670.722
sg9
(I160
I134
tp596
sg11
F3.036715714859559
sa(dp597
g2
(I304
I297
tp598
sg4
(I303
I279
tp599
sg6
(lp600
I303
aI288
asg8
F1476791525740.4138
sg9
(I171
I162
tp601
sg11
F3.0860941483440762
sa(dp602
g2
(I305
I298
tp603
sg4
(I303
I279
tp604
sg6
(lp605
I304
aI288
asg8
F1476791525811.676
sg9
(I72
I144
tp606
sg11
F3.036715714859559
sa(dp607
g2
(I305
I298
tp608
sg4
(I302
I279
tp609
sg6
(lp610
I303
aI288
asg8
F1476791525876.656
sg9
(I166
I194
tp611
sg11
F2.984990776607778
sa(dp612
g2
(I305
I299
tp613
sg4
(I302
I280
tp614
sg6
(lp615
I303
aI289
asg8
F1476791525946.0
sg9
(I153
I195
tp616
sg11
F2.984990776607778
sa(dp617
g2
(I305
I299
tp618
sg4
(I302
I279
tp619
sg6
(lp620
I303
aI289
asg8
F1476791526023.039
sg9
(I120
I232
tp621
sg11
F2.992702705980296
sa(dp622
g2
(I305
I299
tp623
sg4
(I302
I279
tp624
sg6
(lp625
I303
aI289
asg8
F1476791526087.6191
sg9
(I137
I221
tp626
sg11
F2.992702705980296
sa(dp627
g2
(I305
I299
tp628
sg4
(I302
I280
tp629
sg6
(lp630
I303
aI289
asg8
F1476791526164.818
sg9
(I128
I220
tp631
sg11
F2.984990776607778
sa(dp632
g2
(I269
I300
tp633
sg4
(I271
I283
tp634
sg6
(lp635
I270
aI291
asg8
F1476791532794.807
sg9
(I107
I249
tp636
sg11
F3.2587013981566573
sa(dp637
g2
(I270
I300
tp638
sg4
(I270
I280
tp639
sg6
(lp640
I270
aI290
asg8
F1476791532881.604
sg9
(I15
I218
tp641
sg11
F3.141592653589793
sa(dp642
g2
(I270
I300
tp643
sg4
(I270
I280
tp644
sg6
(lp645
I270
aI290
asg8
F1476791532980.043
sg9
(I109
I224
tp646
sg11
F3.141592653589793
sa(dp647
g2
(I270
I300
tp648
sg4
(I270
I280
tp649
sg6
(lp650
I270
aI290
asg8
F1476791533086.324
sg9
(I16
I206
tp651
sg11
F3.141592653589793
sa(dp652
g2
(I269
I300
tp653
sg4
(I270
I280
tp654
sg6
(lp655
I269
aI290
asg8
F1476791533160.0461
sg9
(I27
I191
tp656
sg11
F3.191551049311736
sa(dp657
g2
(I270
I300
tp658
sg4
(I270
I280
tp659
sg6
(lp660
I270
aI290
asg8
F1476791533272.743
sg9
(I19
I127
tp661
sg11
F3.141592653589793
sa(dp662
g2
(I269
I300
tp663
sg4
(I270
I280
tp664
sg6
(lp665
I269
aI290
asg8
F1476791533348.978
sg9
(I122
I165
tp666
sg11
F3.191551049311736
sa(dp667
g2
(I270
I299
tp668
sg4
(I270
I280
tp669
sg6
(lp670
I270
aI289
asg8
F1476791533429.6921
sg9
(I143
I151
tp671
sg11
F3.141592653589793
sa(dp672
g2
(I271
I299
tp673
sg4
(I270
I280
tp674
sg6
(lp675
I270
aI289
asg8
F1476791533512.9531
sg9
(I134
I127
tp676
sg11
F3.0890095919788516
sa(dp677
g2
(I269
I300
tp678
sg4
(I270
I280
tp679
sg6
(lp680
I269
aI290
asg8
F1476791533605.9001
sg9
(I18
I94
tp681
sg11
F3.191551049311736
sa(dp682
g2
(I270
I300
tp683
sg4
(I270
I280
tp684
sg6
(lp685
I270
aI290
asg8
F1476791533707.603
sg9
(I144
I94
tp686
sg11
F3.141592653589793
sa(dp687
g2
(I270
I300
tp688
sg4
(I270
I280
tp689
sg6
(lp690
I270
aI290
asg8
F1476791533799.178
sg9
(I106
I70
tp691
sg11
F3.141592653589793
sa(dp692
g2
(I270
I300
tp693
sg4
(I270
I280
tp694
sg6
(lp695
I270
aI290
asg8
F1476791533881.167
sg9
(I16
I30
tp696
sg11
F3.141592653589793
sa(dp697
g2
(I270
I299
tp698
sg4
(I270
I281
tp699
sg6
(lp700
I270
aI290
asg8
F1476791533978.812
sg9
(I48
I19
tp701
sg11
F3.141592653589793
sa(dp702
g2
(I270
I299
tp703
sg4
(I270
I280
tp704
sg6
(lp705
I270
aI289
asg8
F1476791534056.269
sg9
(I125
I36
tp706
sg11
F3.141592653589793
sa(dp707
g2
(I271
I299
tp708
sg4
(I270
I280
tp709
sg6
(lp710
I270
aI289
asg8
F1476791534141.271
sg9
(I227
I95
tp711
sg11
F3.0890095919788516
sa(dp712
g2
(I270
I299
tp713
sg4
(I270
I281
tp714
sg6
(lp715
I270
aI290
asg8
F1476791534231.968
sg9
(I227
I95
tp716
sg11
F3.141592653589793
sa(dp717
g2
(I272
I299
tp718
sg4
(I270
I281
tp719
sg6
(lp720
I271
aI290
asg8
F1476791534317.015
sg9
(I228
I95
tp721
sg11
F3.0309354324158977
sa(dp722
g2
(I271
I299
tp723
sg4
(I270
I280
tp724
sg6
(lp725
I270
aI289
asg8
F1476791534406.2568
sg9
(I228
I95
tp726
sg11
F3.0890095919788516
sa(dp727
g2
(I270
I299
tp728
sg4
(I270
I280
tp729
sg6
(lp730
I270
aI289
asg8
F1476791534502.3389
sg9
(I228
I95
tp731
sg11
F3.141592653589793
sa(dp732
g2
(I271
I299
tp733
sg4
(I270
I280
tp734
sg6
(lp735
I270
aI289
asg8
F1476791534602.182
sg9
(I228
I95
tp736
sg11
F3.0890095919788516
sa(dp737
g2
(I270
I300
tp738
sg4
(I270
I281
tp739
sg6
(lp740
I270
aI290
asg8
F1476791534684.126
sg9
(I227
I95
tp741
sg11
F3.141592653589793
sa(dp742
g2
(I271
I299
tp743
sg4
(I270
I281
tp744
sg6
(lp745
I270
aI290
asg8
F1476791534768.392
sg9
(I228
I95
tp746
sg11
F3.0860941483440762
sa(dp747
g2
(I270
I300
tp748
sg4
(I270
I280
tp749
sg6
(lp750
I270
aI290
asg8
F1476791534851.362
sg9
(I228
I95
tp751
sg11
F3.141592653589793
sa(dp752
g2
(I270
I299
tp753
sg4
(I270
I280
tp754
sg6
(lp755
I270
aI289
asg8
F1476791534938.588
sg9
(I227
I95
tp756
sg11
F3.141592653589793
sa(dp757
g2
(I271
I299
tp758
sg4
(I270
I281
tp759
sg6
(lp760
I270
aI290
asg8
F1476791535030.77
sg9
(I228
I95
tp761
sg11
F3.0860941483440762
sa(dp762
g2
(I270
I300
tp763
sg4
(I270
I280
tp764
sg6
(lp765
I270
aI290
asg8
F1476791535134.33
sg9
(I228
I95
tp766
sg11
F3.141592653589793
sa(dp767
g2
(I271
I299
tp768
sg4
(I270
I280
tp769
sg6
(lp770
I270
aI289
asg8
F1476791535209.569
sg9
(I228
I95
tp771
sg11
F3.0890095919788516
sa(dp772
g2
(I270
I299
tp773
sg4
(I270
I280
tp774
sg6
(lp775
I270
aI289
asg8
F1476791535311.234
sg9
(I228
I95
tp776
sg11
F3.141592653589793
sa(dp777
g2
(I270
I299
tp778
sg4
(I270
I280
tp779
sg6
(lp780
I270
aI289
asg8
F1476791535406.3562
sg9
(I228
I95
tp781
sg11
F3.141592653589793
sa(dp782
g2
(I270
I300
tp783
sg4
(I270
I280
tp784
sg6
(lp785
I270
aI290
asg8
F1476791535505.532
sg9
(I228
I95
tp786
sg11
F3.141592653589793
sa(dp787
g2
(I270
I299
tp788
sg4
(I270
I280
tp789
sg6
(lp790
I270
aI289
asg8
F1476791535587.338
sg9
(I228
I95
tp791
sg11
F3.141592653589793
sa(dp792
g2
(I270
I300
tp793
sg4
(I270
I280
tp794
sg6
(lp795
I270
aI290
asg8
F1476791535688.304
sg9
(I228
I95
tp796
sg11
F3.141592653589793
sa(dp797
g2
(I270
I300
tp798
sg4
(I270
I280
tp799
sg6
(lp800
I270
aI290
asg8
F1476791535799.212
sg9
(I227
I95
tp801
sg11
F3.141592653589793
sa(dp802
g2
(I271
I299
tp803
sg4
(I270
I280
tp804
sg6
(lp805
I270
aI289
asg8
F1476791535878.082
sg9
(I229
I95
tp806
sg11
F3.0890095919788516
sa(dp807
g2
(I270
I300
tp808
sg4
(I270
I280
tp809
sg6
(lp810
I270
aI290
asg8
F1476791535966.199
sg9
(I228
I95
tp811
sg11
F3.141592653589793
sa(dp812
g2
(I270
I299
tp813
sg4
(I270
I280
tp814
sg6
(lp815
I270
aI289
asg8
F1476791536066.3801
sg9
(I228
I95
tp816
sg11
F3.141592653589793
sa(dp817
g2
(I271
I299
tp818
sg4
(I270
I280
tp819
sg6
(lp820
I270
aI289
asg8
F1476791536148.3992
sg9
(I228
I95
tp821
sg11
F3.0890095919788516
sa(dp822
g2
(I270
I300
tp823
sg4
(I270
I280
tp824
sg6
(lp825
I270
aI290
asg8
F1476791536225.1948
sg9
(I228
I95
tp826
sg11
F3.141592653589793
sa(dp827
g2
(I270
I300
tp828
sg4
(I270
I280
tp829
sg6
(lp830
I270
aI290
asg8
F1476791536317.135
sg9
(I227
I95
tp831
sg11
F3.141592653589793
sa(dp832
g2
(I270
I300
tp833
sg4
(I270
I280
tp834
sg6
(lp835
I270
aI290
asg8
F1476791536395.4128
sg9
(I229
I95
tp836
sg11
F3.141592653589793
sa(dp837
g2
(I270
I300
tp838
sg4
(I270
I281
tp839
sg6
(lp840
I270
aI290
asg8
F1476791536487.747
sg9
(I228
I95
tp841
sg11
F3.141592653589793
sa(dp842
g2
(I271
I299
tp843
sg4
(I270
I280
tp844
sg6
(lp845
I270
aI289
asg8
F1476791536587.006
sg9
(I228
I95
tp846
sg11
F3.0890095919788516
sa(dp847
g2
(I270
I300
tp848
sg4
(I270
I280
tp849
sg6
(lp850
I270
aI290
asg8
F1476791536685.3608
sg9
(I228
I95
tp851
sg11
F3.141592653589793
sa(dp852
g2
(I270
I299
tp853
sg4
(I270
I281
tp854
sg6
(lp855
I270
aI290
asg8
F1476791536774.91
sg9
(I228
I95
tp856
sg11
F3.141592653589793
sa(dp857
g2
(I271
I299
tp858
sg4
(I270
I280
tp859
sg6
(lp860
I270
aI289
asg8
F1476791536862.894
sg9
(I228
I95
tp861
sg11
F3.0890095919788516
sa(dp862
g2
(I270
I300
tp863
sg4
(I270
I280
tp864
sg6
(lp865
I270
aI290
asg8
F1476791536941.227
sg9
(I228
I95
tp866
sg11
F3.141592653589793
sa(dp867
g2
(I270
I300
tp868
sg4
(I270
I280
tp869
sg6
(lp870
I270
aI290
asg8
F1476791537027.17
sg9
(I227
I95
tp871
sg11
F3.141592653589793
sa(dp872
g2
(I271
I300
tp873
sg4
(I270
I280
tp874
sg6
(lp875
I270
aI290
asg8
F1476791537130.328
sg9
(I227
I95
tp876
sg11
F3.09163425786785
sa(dp877
g2
(I270
I300
tp878
sg4
(I270
I280
tp879
sg6
(lp880
I270
aI290
asg8
F1476791537221.832
sg9
(I228
I95
tp881
sg11
F3.141592653589793
sa(dp882
g2
(I270
I300
tp883
sg4
(I270
I280
tp884
sg6
(lp885
I270
aI290
asg8
F1476791537305.051
sg9
(I228
I95
tp886
sg11
F3.141592653589793
sa(dp887
g2
(I269
I300
tp888
sg4
(I270
I280
tp889
sg6
(lp890
I269
aI290
asg8
F1476791537382.3398
sg9
(I228
I95
tp891
sg11
F3.191551049311736
sa(dp892
g2
(I270
I300
tp893
sg4
(I270
I280
tp894
sg6
(lp895
I270
aI290
asg8
F1476791537462.658
sg9
(I228
I95
tp896
sg11
F3.141592653589793
sa(dp897
g2
(I269
I300
tp898
sg4
(I270
I280
tp899
sg6
(lp900
I269
aI290
asg8
F1476791537554.8452
sg9
(I228
I95
tp901
sg11
F3.191551049311736
sa(dp902
g2
(I269
I300
tp903
sg4
(I270
I281
tp904
sg6
(lp905
I269
aI290
asg8
F1476791537650.807
sg9
(I228
I95
tp906
sg11
F3.1941757152007346
sa(dp907
g2
(I270
I299
tp908
sg4
(I270
I280
tp909
sg6
(lp910
I270
aI289
asg8
F1476791537747.222
sg9
(I228
I95
tp911
sg11
F3.141592653589793
sa(dp912
g2
(I269
I300
tp913
sg4
(I270
I280
tp914
sg6
(lp915
I269
aI290
asg8
F1476791537833.216
sg9
(I227
I95
tp916
sg11
F3.191551049311736
sa(dp917
g2
(I270
I300
tp918
sg4
(I270
I280
tp919
sg6
(lp920
I270
aI290
asg8
F1476791537929.5051
sg9
(I228
I95
tp921
sg11
F3.141592653589793
sa(dp922
g2
(I269
I300
tp923
sg4
(I270
I280
tp924
sg6
(lp925
I269
aI290
asg8
F1476791538024.085
sg9
(I228
I95
tp926
sg11
F3.191551049311736
sa(dp927
g2
(I269
I300
tp928
sg4
(I270
I280
tp929
sg6
(lp930
I269
aI290
asg8
F1476791538103.821
sg9
(I228
I95
tp931
sg11
F3.191551049311736
sa(dp932
g2
(I270
I300
tp933
sg4
(I270
I280
tp934
sg6
(lp935
I270
aI290
asg8
F1476791538197.622
sg9
(I228
I95
tp936
sg11
F3.141592653589793
sa(dp937
g2
(I270
I300
tp938
sg4
(I270
I280
tp939
sg6
(lp940
I270
aI290
asg8
F1476791538274.5881
sg9
(I229
I95
tp941
sg11
F3.141592653589793
sa(dp942
g2
(I269
I300
tp943
sg4
(I270
I280
tp944
sg6
(lp945
I269
aI290
asg8
F1476791538362.33
sg9
(I228
I95
tp946
sg11
F3.191551049311736
sa(dp947
g2
(I270
I300
tp948
sg4
(I270
I280
tp949
sg6
(lp950
I270
aI290
asg8
F1476791538453.97
sg9
(I228
I95
tp951
sg11
F3.141592653589793
sa(dp952
g2
(I270
I299
tp953
sg4
(I270
I280
tp954
sg6
(lp955
I270
aI289
asg8
F1476791538540.763
sg9
(I228
I95
tp956
sg11
F3.141592653589793
sa(dp957
g2
(I270
I300
tp958
sg4
(I270
I281
tp959
sg6
(lp960
I270
aI290
asg8
F1476791538633.696
sg9
(I228
I95
tp961
sg11
F3.141592653589793
sa(dp962
g2
(I270
I300
tp963
sg4
(I270
I280
tp964
sg6
(lp965
I270
aI290
asg8
F1476791538735.353
sg9
(I228
I95
tp966
sg11
F3.141592653589793
sa(dp967
g2
(I270
I300
tp968
sg4
(I270
I280
tp969
sg6
(lp970
I270
aI290
asg8
F1476791538830.353
sg9
(I228
I95
tp971
sg11
F3.141592653589793
sa(dp972
g2
(I270
I300
tp973
sg4
(I270
I280
tp974
sg6
(lp975
I270
aI290
asg8
F1476791538930.644
sg9
(I227
I95
tp976
sg11
F3.141592653589793
sa(dp977
g2
(I269
I300
tp978
sg4
(I270
I280
tp979
sg6
(lp980
I269
aI290
asg8
F1476791539040.162
sg9
(I228
I95
tp981
sg11
F3.191551049311736
sa(dp982
g2
(I269
I300
tp983
sg4
(I270
I280
tp984
sg6
(lp985
I269
aI290
asg8
F1476791539123.937
sg9
(I228
I95
tp986
sg11
F3.191551049311736
sa(dp987
g2
(I270
I300
tp988
sg4
(I270
I280
tp989
sg6
(lp990
I270
aI290
asg8
F1476791539220.213
sg9
(I228
I95
tp991
sg11
F3.141592653589793
sa(dp992
g2
(I270
I300
tp993
sg4
(I270
I280
tp994
sg6
(lp995
I270
aI290
asg8
F1476791539298.713
sg9
(I228
I95
tp996
sg11
F3.141592653589793
sa(dp997
g2
(I270
I300
tp998
sg4
(I270
I280
tp999
sg6
(lp1000
I270
aI290
asg8
F1476791539372.122
sg9
(I228
I95
tp1001
sg11
F3.141592653589793
sa(dp1002
g2
(I270
I300
tp1003
sg4
(I270
I280
tp1004
sg6
(lp1005
I270
aI290
asg8
F1476791539454.813
sg9
(I228
I95
tp1006
sg11
F3.141592653589793
sa(dp1007
g2
(I269
I300
tp1008
sg4
(I270
I280
tp1009
sg6
(lp1010
I269
aI290
asg8
F1476791539539.861
sg9
(I228
I95
tp1011
sg11
F3.191551049311736
sa(dp1012
g2
(I269
I300
tp1013
sg4
(I270
I280
tp1014
sg6
(lp1015
I269
aI290
asg8
F1476791539685.101
sg9
(I228
I95
tp1016
sg11
F3.191551049311736
sa(dp1017
g2
(I270
I300
tp1018
sg4
(I270
I280
tp1019
sg6
(lp1020
I270
aI290
asg8
F1476791539757.406
sg9
(I228
I95
tp1021
sg11
F3.141592653589793
sa(dp1022
g2
(I269
I300
tp1023
sg4
(I270
I280
tp1024
sg6
(lp1025
I269
aI290
asg8
F1476791539821.9631
sg9
(I228
I95
tp1026
sg11
F3.191551049311736
sa(dp1027
g2
(I271
I299
tp1028
sg4
(I270
I280
tp1029
sg6
(lp1030
I270
aI289
asg8
F1476791539913.832
sg9
(I228
I95
tp1031
sg11
F3.0890095919788516
sa(dp1032
g2
(I271
I300
tp1033
sg4
(I270
I280
tp1034
sg6
(lp1035
I270
aI290
asg8
F1476791539996.379
sg9
(I228
I95
tp1036
sg11
F3.09163425786785
sa(dp1037
g2
(I269
I300
tp1038
sg4
(I270
I281
tp1039
sg6
(lp1040
I269
aI290
asg8
F1476791540082.285
sg9
(I228
I95
tp1041
sg11
F3.1941757152007346
sa(dp1042
g2
(I272
I299
tp1043
sg4
(I270
I280
tp1044
sg6
(lp1045
I271
aI289
asg8
F1476791540163.218
sg9
(I228
I95
tp1046
sg11
F3.036715714859559
sa(dp1047
g2
(I270
I300
tp1048
sg4
(I270
I280
tp1049
sg6
(lp1050
I270
aI290
asg8
F1476791540252.1838
sg9
(I228
I95
tp1051
sg11
F3.141592653589793
sa(dp1052
g2
(I270
I300
tp1053
sg4
(I270
I280
tp1054
sg6
(lp1055
I270
aI290
asg8
F1476791540357.931
sg9
(I228
I95
tp1056
sg11
F3.141592653589793
sa(dp1057
g2
(I270
I300
tp1058
sg4
(I270
I280
tp1059
sg6
(lp1060
I270
aI290
asg8
F1476791540432.294
sg9
(I228
I95
tp1061
sg11
F3.141592653589793
sa(dp1062
g2
(I270
I300
tp1063
sg4
(I270
I280
tp1064
sg6
(lp1065
I270
aI290
asg8
F1476791540517.084
sg9
(I228
I95
tp1066
sg11
F3.141592653589793
sa(dp1067
g2
(I270
I300
tp1068
sg4
(I270
I280
tp1069
sg6
(lp1070
I270
aI290
asg8
F1476791540617.327
sg9
(I228
I95
tp1071
sg11
F3.141592653589793
sa(dp1072
g2
(I270
I300
tp1073
sg4
(I270
I280
tp1074
sg6
(lp1075
I270
aI290
asg8
F1476791540721.538
sg9
(I228
I95
tp1076
sg11
F3.141592653589793
sa(dp1077
g2
(I269
I300
tp1078
sg4
(I270
I280
tp1079
sg6
(lp1080
I269
aI290
asg8
F1476791540805.352
sg9
(I228
I95
tp1081
sg11
F3.191551049311736
sa(dp1082
g2
(I270
I300
tp1083
sg4
(I270
I280
tp1084
sg6
(lp1085
I270
aI290
asg8
F1476791540889.204
sg9
(I227
I95
tp1086
sg11
F3.141592653589793
sa(dp1087
g2
(I270
I300
tp1088
sg4
(I270
I280
tp1089
sg6
(lp1090
I270
aI290
asg8
F1476791540982.315
sg9
(I227
I95
tp1091
sg11
F3.141592653589793
sa(dp1092
g2
(I270
I299
tp1093
sg4
(I270
I280
tp1094
sg6
(lp1095
I270
aI289
asg8
F1476791541073.632
sg9
(I228
I95
tp1096
sg11
F3.141592653589793
sa(dp1097
g2
(I270
I299
tp1098
sg4
(I270
I280
tp1099
sg6
(lp1100
I270
aI289
asg8
F1476791541174.644
sg9
(I228
I95
tp1101
sg11
F3.141592653589793
sa(dp1102
g2
(I270
I300
tp1103
sg4
(I270
I280
tp1104
sg6
(lp1105
I270
aI290
asg8
F1476791541259.0571
sg9
(I228
I95
tp1106
sg11
F3.141592653589793
sa(dp1107
g2
(I270
I300
tp1108
sg4
(I270
I280
tp1109
sg6
(lp1110
I270
aI290
asg8
F1476791541347.0571
sg9
(I228
I95
tp1111
sg11
F3.141592653589793
sa(dp1112
g2
(I269
I300
tp1113
sg4
(I270
I280
tp1114
sg6
(lp1115
I269
aI290
asg8
F1476791541425.8489
sg9
(I228
I95
tp1116
sg11
F3.191551049311736
sa(dp1117
g2
(I270
I300
tp1118
sg4
(I270
I280
tp1119
sg6
(lp1120
I270
aI290
asg8
F1476791541525.507
sg9
(I227
I95
tp1121
sg11
F3.141592653589793
sa(dp1122
g2
(I269
I300
tp1123
sg4
(I270
I280
tp1124
sg6
(lp1125
I269
aI290
asg8
F1476791541611.127
sg9
(I228
I95
tp1126
sg11
F3.191551049311736
sa(dp1127
g2
(I270
I299
tp1128
sg4
(I270
I280
tp1129
sg6
(lp1130
I270
aI289
asg8
F1476791541725.002
sg9
(I228
I95
tp1131
sg11
F3.141592653589793
sa(dp1132
g2
(I270
I300
tp1133
sg4
(I270
I280
tp1134
sg6
(lp1135
I270
aI290
asg8
F1476791541822.557
sg9
(I228
I95
tp1136
sg11
F3.141592653589793
sa(dp1137
g2
(I270
I300
tp1138
sg4
(I270
I281
tp1139
sg6
(lp1140
I270
aI290
asg8
F1476791541931.5122
sg9
(I227
I95
tp1141
sg11
F3.141592653589793
sa(dp1142
g2
(I270
I300
tp1143
sg4
(I270
I280
tp1144
sg6
(lp1145
I270
aI290
asg8
F1476791542017.945
sg9
(I228
I95
tp1146
sg11
F3.141592653589793
sa(dp1147
g2
(I270
I300
tp1148
sg4
(I270
I280
tp1149
sg6
(lp1150
I270
aI290
asg8
F1476791542119.952
sg9
(I228
I95
tp1151
sg11
F3.141592653589793
sa(dp1152
g2
(I270
I300
tp1153
sg4
(I270
I280
tp1154
sg6
(lp1155
I270
aI290
asg8
F1476791542189.969
sg9
(I228
I95
tp1156
sg11
F3.141592653589793
sa(dp1157
g2
(I270
I300
tp1158
sg4
(I270
I280
tp1159
sg6
(lp1160
I270
aI290
asg8
F1476791542275.765
sg9
(I228
I95
tp1161
sg11
F3.141592653589793
sa(dp1162
g2
(I270
I300
tp1163
sg4
(I270
I280
tp1164
sg6
(lp1165
I270
aI290
asg8
F1476791542344.891
sg9
(I228
I95
tp1166
sg11
F3.141592653589793
sa(dp1167
g2
(I270
I300
tp1168
sg4
(I270
I280
tp1169
sg6
(lp1170
I270
aI290
asg8
F1476791542415.8262
sg9
(I228
I95
tp1171
sg11
F3.141592653589793
sa(dp1172
g2
(I270
I300
tp1173
sg4
(I270
I280
tp1174
sg6
(lp1175
I270
aI290
asg8
F1476791542501.711
sg9
(I228
I95
tp1176
sg11
F3.141592653589793
sa(dp1177
g2
(I268
I300
tp1178
sg4
(I270
I280
tp1179
sg6
(lp1180
I269
aI290
asg8
F1476791542596.135
sg9
(I228
I95
tp1181
sg11
F3.241261306080955
sa(dp1182
g2
(I270
I300
tp1183
sg4
(I270
I280
tp1184
sg6
(lp1185
I270
aI290
asg8
F1476791542721.65
sg9
(I228
I95
tp1186
sg11
F3.141592653589793
sa(dp1187
g2
(I270
I300
tp1188
sg4
(I270
I280
tp1189
sg6
(lp1190
I270
aI290
asg8
F1476791542820.618
sg9
(I228
I95
tp1191
sg11
F3.141592653589793
sa(dp1192
g2
(I270
I299
tp1193
sg4
(I270
I280
tp1194
sg6
(lp1195
I270
aI289
asg8
F1476791542900.5042
sg9
(I228
I95
tp1196
sg11
F3.141592653589793
sa(dp1197
g2
(I269
I300
tp1198
sg4
(I270
I280
tp1199
sg6
(lp1200
I269
aI290
asg8
F1476791542989.0251
sg9
(I228
I95
tp1201
sg11
F3.191551049311736
sa(dp1202
g2
(I269
I300
tp1203
sg4
(I270
I280
tp1204
sg6
(lp1205
I269
aI290
asg8
F1476791543067.7559
sg9
(I228
I95
tp1206
sg11
F3.191551049311736
sa(dp1207
g2
(I270
I300
tp1208
sg4
(I270
I280
tp1209
sg6
(lp1210
I270
aI290
asg8
F1476791543147.1191
sg9
(I228
I95
tp1211
sg11
F3.141592653589793
sa(dp1212
g2
(I270
I300
tp1213
sg4
(I270
I280
tp1214
sg6
(lp1215
I270
aI290
asg8
F1476791543213.583
sg9
(I228
I95
tp1216
sg11
F3.141592653589793
sa(dp1217
g2
(I269
I300
tp1218
sg4
(I270
I280
tp1219
sg6
(lp1220
I269
aI290
asg8
F1476791543321.579
sg9
(I228
I95
tp1221
sg11
F3.191551049311736
sa(dp1222
g2
(I271
I299
tp1223
sg4
(I270
I280
tp1224
sg6
(lp1225
I270
aI289
asg8
F1476791543403.872
sg9
(I228
I95
tp1226
sg11
F3.0890095919788516
sa(dp1227
g2
(I270
I300
tp1228
sg4
(I270
I280
tp1229
sg6
(lp1230
I270
aI290
asg8
F1476791543482.503
sg9
(I228
I95
tp1231
sg11
F3.141592653589793
sa(dp1232
g2
(I270
I300
tp1233
sg4
(I270
I280
tp1234
sg6
(lp1235
I270
aI290
asg8
F1476791543573.05
sg9
(I228
I95
tp1236
sg11
F3.141592653589793
sa(dp1237
g2
(I270
I300
tp1238
sg4
(I270
I280
tp1239
sg6
(lp1240
I270
aI290
asg8
F1476791543679.793
sg9
(I228
I95
tp1241
sg11
F3.141592653589793
sa(dp1242
g2
(I269
I300
tp1243
sg4
(I270
I280
tp1244
sg6
(lp1245
I269
aI290
asg8
F1476791543784.771
sg9
(I228
I95
tp1246
sg11
F3.191551049311736
sa(dp1247
g2
(I270
I300
tp1248
sg4
(I270
I280
tp1249
sg6
(lp1250
I270
aI290
asg8
F1476791543892.616
sg9
(I228
I95
tp1251
sg11
F3.141592653589793
sa(dp1252
g2
(I270
I300
tp1253
sg4
(I270
I280
tp1254
sg6
(lp1255
I270
aI290
asg8
F1476791543983.9739
sg9
(I228
I95
tp1256
sg11
F3.141592653589793
sa(dp1257
g2
(I270
I300
tp1258
sg4
(I270
I280
tp1259
sg6
(lp1260
I270
aI290
asg8
F1476791544079.622
sg9
(I229
I95
tp1261
sg11
F3.141592653589793
sa(dp1262
g2
(I270
I300
tp1263
sg4
(I270
I281
tp1264
sg6
(lp1265
I270
aI290
asg8
F1476791544191.976
sg9
(I228
I95
tp1266
sg11
F3.141592653589793
sa(dp1267
g2
(I270
I300
tp1268
sg4
(I270
I281
tp1269
sg6
(lp1270
I270
aI290
asg8
F1476791544301.059
sg9
(I229
I95
tp1271
sg11
F3.141592653589793
sa(dp1272
g2
(I270
I299
tp1273
sg4
(I270
I280
tp1274
sg6
(lp1275
I270
aI289
asg8
F1476791544379.048
sg9
(I229
I95
tp1276
sg11
F3.141592653589793
sa(dp1277
g2
(I270
I299
tp1278
sg4
(I270
I280
tp1279
sg6
(lp1280
I270
aI289
asg8
F1476791544457.766
sg9
(I229
I95
tp1281
sg11
F3.141592653589793
sa(dp1282
g2
(I270
I299
tp1283
sg4
(I270
I280
tp1284
sg6
(lp1285
I270
aI289
asg8
F1476791544538.851
sg9
(I229
I95
tp1286
sg11
F3.141592653589793
sa(dp1287
g2
(I270
I300
tp1288
sg4
(I270
I280
tp1289
sg6
(lp1290
I270
aI290
asg8
F1476791544621.1392
sg9
(I229
I95
tp1291
sg11
F3.141592653589793
sa(dp1292
g2
(I270
I300
tp1293
sg4
(I270
I280
tp1294
sg6
(lp1295
I270
aI290
asg8
F1476791544713.674
sg9
(I228
I95
tp1296
sg11
F3.141592653589793
sa(dp1297
g2
(I269
I300
tp1298
sg4
(I270
I281
tp1299
sg6
(lp1300
I269
aI290
asg8
F1476791544805.572
sg9
(I229
I96
tp1301
sg11
F3.1941757152007346
sa(dp1302
g2
(I271
I300
tp1303
sg4
(I270
I281
tp1304
sg6
(lp1305
I270
aI290
asg8
F1476791544907.468
sg9
(I227
I95
tp1306
sg11
F3.0890095919788516
sa(dp1307
g2
(I270
I300
tp1308
sg4
(I270
I280
tp1309
sg6
(lp1310
I270
aI290
asg8
F1476791544999.889
sg9
(I227
I96
tp1311
sg11
F3.141592653589793
sa(dp1312
g2
(I270
I300
tp1313
sg4
(I270
I281
tp1314
sg6
(lp1315
I270
aI290
asg8
F1476791545098.626
sg9
(I223
I97
tp1316
sg11
F3.141592653589793
sa(dp1317
g2
(I269
I300
tp1318
sg4
(I270
I281
tp1319
sg6
(lp1320
I269
aI290
asg8
F1476791545187.147
sg9
(I219
I97
tp1321
sg11
F3.1941757152007346
sa(dp1322
g2
(I269
I300
tp1323
sg4
(I270
I280
tp1324
sg6
(lp1325
I269
aI290
asg8
F1476791545284.4019
sg9
(I216
I98
tp1326
sg11
F3.191551049311736
sa(dp1327
g2
(I270
I300
tp1328
sg4
(I270
I281
tp1329
sg6
(lp1330
I270
aI290
asg8
F1476791545376.7441
sg9
(I213
I99
tp1331
sg11
F3.141592653589793
sa(dp1332
g2
(I270
I300
tp1333
sg4
(I270
I281
tp1334
sg6
(lp1335
I270
aI290
asg8
F1476791545453.858
sg9
(I208
I100
tp1336
sg11
F3.141592653589793
sa(dp1337
g2
(I270
I300
tp1338
sg4
(I270
I280
tp1339
sg6
(lp1340
I270
aI290
asg8
F1476791545521.207
sg9
(I206
I100
tp1341
sg11
F3.141592653589793
sa(dp1342
g2
(I269
I300
tp1343
sg4
(I270
I280
tp1344
sg6
(lp1345
I269
aI290
asg8
F1476791545610.443
sg9
(I203
I101
tp1346
sg11
F3.191551049311736
sa(dp1347
g2
(I271
I299
tp1348
sg4
(I270
I281
tp1349
sg6
(lp1350
I270
aI290
asg8
F1476791545677.69
sg9
(I199
I102
tp1351
sg11
F3.0860941483440762
sa(dp1352
g2
(I269
I300
tp1353
sg4
(I270
I280
tp1354
sg6
(lp1355
I269
aI290
asg8
F1476791545752.708
sg9
(I195
I103
tp1356
sg11
F3.191551049311736
sa(dp1357
g2
(I270
I300
tp1358
sg4
(I270
I280
tp1359
sg6
(lp1360
I270
aI290
asg8
F1476791545850.4282
sg9
(I193
I104
tp1361
sg11
F3.141592653589793
sa(dp1362
g2
(I270
I300
tp1363
sg4
(I270
I280
tp1364
sg6
(lp1365
I270
aI290
asg8
F1476791545932.948
sg9
(I191
I105
tp1366
sg11
F3.141592653589793
sa(dp1367
g2
(I270
I300
tp1368
sg4
(I270
I280
tp1369
sg6
(lp1370
I270
aI290
asg8
F1476791546041.928
sg9
(I187
I106
tp1371
sg11
F3.141592653589793
sa(dp1372
g2
(I270
I300
tp1373
sg4
(I270
I281
tp1374
sg6
(lp1375
I270
aI290
asg8
F1476791546148.966
sg9
(I187
I106
tp1376
sg11
F3.141592653589793
sa(dp1377
g2
(I270
I300
tp1378
sg4
(I270
I281
tp1379
sg6
(lp1380
I270
aI290
asg8
F1476791546213.745
sg9
(I189
I105
tp1381
sg11
F3.141592653589793
sa(dp1382
g2
(I270
I300
tp1383
sg4
(I270
I280
tp1384
sg6
(lp1385
I270
aI290
asg8
F1476791546287.499
sg9
(I191
I104
tp1386
sg11
F3.141592653589793
sa(dp1387
g2
(I270
I299
tp1388
sg4
(I270
I281
tp1389
sg6
(lp1390
I270
aI290
asg8
F1476791546355.711
sg9
(I193
I104
tp1391
sg11
F3.141592653589793
sa(dp1392
g2
(I270
I300
tp1393
sg4
(I270
I281
tp1394
sg6
(lp1395
I270
aI290
asg8
F1476791546452.486
sg9
(I193
I102
tp1396
sg11
F3.141592653589793
sa(dp1397
g2
(I270
I299
tp1398
sg4
(I270
I281
tp1399
sg6
(lp1400
I270
aI290
asg8
F1476791546541.432
sg9
(I194
I101
tp1401
sg11
F3.141592653589793
sa(dp1402
g2
(I271
I300
tp1403
sg4
(I270
I280
tp1404
sg6
(lp1405
I270
aI290
asg8
F1476791546647.438
sg9
(I196
I101
tp1406
sg11
F3.09163425786785
sa(dp1407
g2
(I270
I300
tp1408
sg4
(I270
I280
tp1409
sg6
(lp1410
I270
aI290
asg8
F1476791546749.468
sg9
(I197
I105
tp1411
sg11
F3.141592653589793
sa(dp1412
g2
(I269
I300
tp1413
sg4
(I270
I280
tp1414
sg6
(lp1415
I269
aI290
asg8
F1476791546818.425
sg9
(I183
I109
tp1416
sg11
F3.191551049311736
sa(dp1417
g2
(I270
I299
tp1418
sg4
(I270
I281
tp1419
sg6
(lp1420
I270
aI290
asg8
F1476791546898.036
sg9
(I182
I118
tp1421
sg11
F3.141592653589793
sa(dp1422
g2
(I270
I300
tp1423
sg4
(I270
I280
tp1424
sg6
(lp1425
I270
aI290
asg8
F1476791546974.801
sg9
(I176
I121
tp1426
sg11
F3.141592653589793
sa(dp1427
g2
(I270
I300
tp1428
sg4
(I270
I281
tp1429
sg6
(lp1430
I270
aI290
asg8
F1476791547071.572
sg9
(I173
I129
tp1431
sg11
F3.141592653589793
sa(dp1432
g2
(I270
I300
tp1433
sg4
(I270
I280
tp1434
sg6
(lp1435
I270
aI290
asg8
F1476791547167.47
sg9
(I168
I133
tp1436
sg11
F3.141592653589793
sa(dp1437
g2
(I271
I299
tp1438
sg4
(I270
I280
tp1439
sg6
(lp1440
I270
aI289
asg8
F1476791547256.416
sg9
(I164
I140
tp1441
sg11
F3.0890095919788516
sa(dp1442
g2
(I270
I300
tp1443
sg4
(I270
I280
tp1444
sg6
(lp1445
I270
aI290
asg8
F1476791547347.764
sg9
(I159
I146
tp1446
sg11
F3.141592653589793
sa(dp1447
g2
(I270
I300
tp1448
sg4
(I270
I280
tp1449
sg6
(lp1450
I270
aI290
asg8
F1476791547425.034
sg9
(I153
I152
tp1451
sg11
F3.141592653589793
sa(dp1452
g2
(I270
I299
tp1453
sg4
(I270
I280
tp1454
sg6
(lp1455
I270
aI289
asg8
F1476791547509.4421
sg9
(I150
I156
tp1456
sg11
F3.141592653589793
sa(dp1457
g2
(I270
I300
tp1458
sg4
(I270
I280
tp1459
sg6
(lp1460
I270
aI290
asg8
F1476791547608.4248
sg9
(I145
I162
tp1461
sg11
F3.141592653589793
sa(dp1462
g2
(I269
I300
tp1463
sg4
(I270
I280
tp1464
sg6
(lp1465
I269
aI290
asg8
F1476791547704.987
sg9
(I142
I166
tp1466
sg11
F3.191551049311736
sa(dp1467
g2
(I269
I300
tp1468
sg4
(I270
I280
tp1469
sg6
(lp1470
I269
aI290
asg8
F1476791547808.981
sg9
(I138
I172
tp1471
sg11
F3.191551049311736
sa(dp1472
g2
(I271
I300
tp1473
sg4
(I270
I280
tp1474
sg6
(lp1475
I270
aI290
asg8
F1476791547899.056
sg9
(I132
I177
tp1476
sg11
F3.09163425786785
sa(dp1477
g2
(I270
I300
tp1478
sg4
(I270
I281
tp1479
sg6
(lp1480
I270
aI290
asg8
F1476791547989.5579
sg9
(I134
I183
tp1481
sg11
F3.141592653589793
sa(dp1482
g2
(I270
I300
tp1483
sg4
(I270
I281
tp1484
sg6
(lp1485
I270
aI290
asg8
F1476791548079.128
sg9
(I143
I194
tp1486
sg11
F3.141592653589793
sa(dp1487
g2
(I270
I300
tp1488
sg4
(I270
I280
tp1489
sg6
(lp1490
I270
aI290
asg8
F1476791548166.903
sg9
(I149
I203
tp1491
sg11
F3.141592653589793
sa(dp1492
g2
(I269
I300
tp1493
sg4
(I270
I280
tp1494
sg6
(lp1495
I269
aI290
asg8
F1476791548255.1438
sg9
(I158
I213
tp1496
sg11
F3.191551049311736
sa(dp1497
g2
(I270
I300
tp1498
sg4
(I270
I281
tp1499
sg6
(lp1500
I270
aI290
asg8
F1476791548352.466
sg9
(I162
I220
tp1501
sg11
F3.141592653589793
sa(dp1502
g2
(I270
I300
tp1503
sg4
(I270
I280
tp1504
sg6
(lp1505
I270
aI290
asg8
F1476791548445.731
sg9
(I170
I229
tp1506
sg11
F3.141592653589793
sa(dp1507
g2
(I270
I300
tp1508
sg4
(I270
I280
tp1509
sg6
(lp1510
I270
aI290
asg8
F1476791548521.3079
sg9
(I177
I238
tp1511
sg11
F3.141592653589793
sa(dp1512
g2
(I271
I299
tp1513
sg4
(I270
I281
tp1514
sg6
(lp1515
I270
aI290
asg8
F1476791548609.883
sg9
(I182
I244
tp1516
sg11
F3.0860941483440762
sa(dp1517
g2
(I270
I300
tp1518
sg4
(I270
I280
tp1519
sg6
(lp1520
I270
aI290
asg8
F1476791548682.365
sg9
(I188
I253
tp1521
sg11
F3.141592653589793
sa(dp1522
g2
(I271
I300
tp1523
sg4
(I270
I280
tp1524
sg6
(lp1525
I270
aI290
asg8
F1476791548786.4548
sg9
(I195
I262
tp1526
sg11
F3.09163425786785
sa(dp1527
g2
(I270
I300
tp1528
sg4
(I270
I280
tp1529
sg6
(lp1530
I270
aI290
asg8
F1476791548891.5142
sg9
(I200
I267
tp1531
sg11
F3.141592653589793
sa(dp1532
g2
(I270
I300
tp1533
sg4
(I270
I281
tp1534
sg6
(lp1535
I270
aI290
asg8
F1476791548996.0378
sg9
Nsg11
F3.141592653589793
sa(dp1536
g2
(I270
I300
tp1537
sg4
(I270
I281
tp1538
sg6
(lp1539
I270
aI290
asg8
F1476791549107.915
sg9
Nsg11
F3.141592653589793
sa(dp1540
g2
(I270
I300
tp1541
sg4
(I270
I280
tp1542
sg6
(lp1543
I270
aI290
asg8
F1476791549204.098
sg9
Nsg11
F3.141592653589793
sa(dp1544
g2
(I272
I304
tp1545
sg4
(I270
I280
tp1546
sg6
(lp1547
I271
aI292
asg8
F1476791549288.655
sg9
Nsg11
F3.058451421701352
sa(dp1548
g2
(I269
I300
tp1549
sg4
(I270
I280
tp1550
sg6
(lp1551
I269
aI290
asg8
F1476791549346.044
sg9
Nsg11
F3.191551049311736
sa(dp1552
g2
(I270
I299
tp1553
sg4
(I270
I281
tp1554
sg6
(lp1555
I270
aI290
asg8
F1476791549415.406
sg9
(I235
I312
tp1556
sg11
F3.141592653589793
sa(dp1557
g2
(I270
I300
tp1558
sg4
(I270
I280
tp1559
sg6
(lp1560
I270
aI290
asg8
F1476791549509.673
sg9
(I240
I319
tp1561
sg11
F3.141592653589793
sa(dp1562
g2
(I269
I300
tp1563
sg4
(I270
I280
tp1564
sg6
(lp1565
I269
aI290
asg8
F1476791549594.749
sg9
(I244
I323
tp1566
sg11
F3.191551049311736
sa(dp1567
g2
(I270
I299
tp1568
sg4
(I270
I280
tp1569
sg6
(lp1570
I270
aI289
asg8
F1476791549698.0122
sg9
(I249
I330
tp1571
sg11
F3.141592653589793
sa(dp1572
g2
(I270
I300
tp1573
sg4
(I270
I281
tp1574
sg6
(lp1575
I270
aI290
asg8
F1476791549797.2952
sg9
(I255
I336
tp1576
sg11
F3.141592653589793
sa(dp1577
g2
(I270
I299
tp1578
sg4
(I270
I280
tp1579
sg6
(lp1580
I270
aI289
asg8
F1476791549897.182
sg9
(I259
I343
tp1581
sg11
F3.141592653589793
sa(dp1582
g2
(I269
I300
tp1583
sg4
(I270
I280
tp1584
sg6
(lp1585
I269
aI290
asg8
F1476791549994.94
sg9
(I265
I349
tp1586
sg11
F3.191551049311736
sa(dp1587
g2
(I270
I300
tp1588
sg4
(I270
I281
tp1589
sg6
(lp1590
I270
aI290
asg8
F1476791550084.6501
sg9
(I268
I353
tp1591
sg11
F3.141592653589793
sa(dp1592
g2
(I270
I300
tp1593
sg4
(I270
I280
tp1594
sg6
(lp1595
I270
aI290
asg8
F1476791550154.085
sg9
(I273
I359
tp1596
sg11
F3.141592653589793
sa(dp1597
g2
(I270
I300
tp1598
sg4
(I270
I281
tp1599
sg6
(lp1600
I270
aI290
asg8
F1476791550247.272
sg9
(I277
I364
tp1601
sg11
F3.141592653589793
sa(dp1602
g2
(I269
I300
tp1603
sg4
(I270
I280
tp1604
sg6
(lp1605
I269
aI290
asg8
F1476791550339.955
sg9
(I282
I370
tp1606
sg11
F3.191551049311736
sa(dp1607
g2
(I270
I300
tp1608
sg4
(I270
I280
tp1609
sg6
(lp1610
I270
aI290
asg8
F1476791550431.193
sg9
(I284
I374
tp1611
sg11
F3.141592653589793
sa(dp1612
g2
(I270
I300
tp1613
sg4
(I270
I280
tp1614
sg6
(lp1615
I270
aI290
asg8
F1476791550512.282
sg9
(I17
I167
tp1616
sg11
F3.141592653589793
sa(dp1617
g2
(I271
I299
tp1618
sg4
(I270
I280
tp1619
sg6
(lp1620
I270
aI289
asg8
F1476791550598.86
sg9
(I293
I384
tp1621
sg11
F3.0890095919788516
sa(dp1622
g2
(I270
I300
tp1623
sg4
(I270
I280
tp1624
sg6
(lp1625
I270
aI290
asg8
F1476791550693.086
sg9
(I296
I387
tp1626
sg11
F3.141592653589793
sa(dp1627
g2
(I270
I300
tp1628
sg4
(I270
I280
tp1629
sg6
(lp1630
I270
aI290
asg8
F1476791550792.849
sg9
(I300
I392
tp1631
sg11
F3.141592653589793
sa(dp1632
g2
(I270
I300
tp1633
sg4
(I270
I280
tp1634
sg6
(lp1635
I270
aI290
asg8
F1476791550884.263
sg9
(I304
I396
tp1636
sg11
F3.141592653589793
sa(dp1637
g2
(I269
I300
tp1638
sg4
(I270
I280
tp1639
sg6
(lp1640
I269
aI290
asg8
F1476791550977.877
sg9
(I306
I399
tp1641
sg11
F3.191551049311736
sa(dp1642
g2
(I270
I300
tp1643
sg4
(I270
I280
tp1644
sg6
(lp1645
I270
aI290
asg8
F1476791551073.143
sg9
(I309
I404
tp1646
sg11
F3.141592653589793
sa(dp1647
g2
(I270
I300
tp1648
sg4
(I270
I280
tp1649
sg6
(lp1650
I270
aI290
asg8
F1476791551176.145
sg9
(I313
I408
tp1651
sg11
F3.141592653589793
sa(dp1652
g2
(I269
I300
tp1653
sg4
(I270
I280
tp1654
sg6
(lp1655
I269
aI290
asg8
F1476791551247.445
sg9
(I316
I412
tp1656
sg11
F3.191551049311736
sa(dp1657
g2
(I269
I300
tp1658
sg4
(I270
I280
tp1659
sg6
(lp1660
I269
aI290
asg8
F1476791551328.309
sg9
(I317
I415
tp1661
sg11
F3.191551049311736
sa(dp1662
g2
(I270
I300
tp1663
sg4
(I270
I281
tp1664
sg6
(lp1665
I270
aI290
asg8
F1476791551416.6912
sg9
(I321
I419
tp1666
sg11
F3.141592653589793
sa(dp1667
g2
(I270
I300
tp1668
sg4
(I270
I280
tp1669
sg6
(lp1670
I270
aI290
asg8
F1476791551524.442
sg9
(I324
I423
tp1671
sg11
F3.141592653589793
sa(dp1672
g2
(I269
I300
tp1673
sg4
(I270
I280
tp1674
sg6
(lp1675
I269
aI290
asg8
F1476791551629.342
sg9
(I325
I425
tp1676
sg11
F3.191551049311736
sa(dp1677
g2
(I269
I300
tp1678
sg4
(I270
I280
tp1679
sg6
(lp1680
I269
aI290
asg8
F1476791551710.0662
sg9
(I328
I428
tp1681
sg11
F3.191551049311736
sa(dp1682
g2
(I270
I300
tp1683
sg4
(I270
I280
tp1684
sg6
(lp1685
I270
aI290
asg8
F1476791551793.622
sg9
(I331
I431
tp1686
sg11
F3.141592653589793
sa(dp1687
g2
(I269
I300
tp1688
sg4
(I270
I280
tp1689
sg6
(lp1690
I269
aI290
asg8
F1476791551882.781
sg9
(I332
I433
tp1691
sg11
F3.191551049311736
sa(dp1692
g2
(I270
I299
tp1693
sg4
(I270
I280
tp1694
sg6
(lp1695
I270
aI289
asg8
F1476791551971.74
sg9
(I336
I436
tp1696
sg11
F3.141592653589793
sa(dp1697
g2
(I270
I299
tp1698
sg4
(I270
I281
tp1699
sg6
(lp1700
I270
aI290
asg8
F1476791552057.902
sg9
(I338
I438
tp1701
sg11
F3.141592653589793
sa(dp1702
g2
(I270
I300
tp1703
sg4
(I270
I280
tp1704
sg6
(lp1705
I270
aI290
asg8
F1476791552155.482
sg9
(I340
I441
tp1706
sg11
F3.141592653589793
sa(dp1707
g2
(I270
I300
tp1708
sg4
(I270
I280
tp1709
sg6
(lp1710
I270
aI290
asg8
F1476791552255.851
sg9
(I342
I442
tp1711
sg11
F3.141592653589793
sa(dp1712
g2
(I270
I300
tp1713
sg4
(I270
I280
tp1714
sg6
(lp1715
I270
aI290
asg8
F1476791552337.637
sg9
(I344
I444
tp1716
sg11
F3.141592653589793
sa(dp1717
g2
(I269
I300
tp1718
sg4
(I270
I280
tp1719
sg6
(lp1720
I269
aI290
asg8
F1476791552419.324
sg9
(I347
I446
tp1721
sg11
F3.191551049311736
sa(dp1722
g2
(I270
I300
tp1723
sg4
(I270
I280
tp1724
sg6
(lp1725
I270
aI290
asg8
F1476791552510.119
sg9
(I348
I447
tp1726
sg11
F3.141592653589793
sa(dp1727
g2
(I270
I300
tp1728
sg4
(I270
I281
tp1729
sg6
(lp1730
I270
aI290
asg8
F1476791552603.2742
sg9
(I350
I449
tp1731
sg11
F3.141592653589793
sa(dp1732
g2
(I271
I299
tp1733
sg4
(I270
I280
tp1734
sg6
(lp1735
I270
aI289
asg8
F1476791552692.973
sg9
(I352
I451
tp1736
sg11
F3.0890095919788516
sa(dp1737
g2
(I270
I300
tp1738
sg4
(I270
I281
tp1739
sg6
(lp1740
I270
aI290
asg8
F1476791552775.049
sg9
(I354
I452
tp1741
sg11
F3.141592653589793
sa(dp1742
g2
(I270
I300
tp1743
sg4
(I270
I280
tp1744
sg6
(lp1745
I270
aI290
asg8
F1476791552863.971
sg9
(I355
I453
tp1746
sg11
F3.141592653589793
sa(dp1747
g2
(I269
I300
tp1748
sg4
(I270
I280
tp1749
sg6
(lp1750
I269
aI290
asg8
F1476791552943.7002
sg9
(I358
I455
tp1751
sg11
F3.191551049311736
sa(dp1752
g2
(I270
I300
tp1753
sg4
(I270
I280
tp1754
sg6
(lp1755
I270
aI290
asg8
F1476791553034.813
sg9
(I359
I456
tp1756
sg11
F3.141592653589793
sa(dp1757
g2
(I270
I300
tp1758
sg4
(I270
I281
tp1759
sg6
(lp1760
I270
aI290
asg8
F1476791553119.3992
sg9
(I361
I456
tp1761
sg11
F3.141592653589793
sa(dp1762
g2
(I270
I300
tp1763
sg4
(I270
I281
tp1764
sg6
(lp1765
I270
aI290
asg8
F1476791553202.6838
sg9
(I362
I457
tp1766
sg11
F3.141592653589793
sa(dp1767
g2
(I270
I300
tp1768
sg4
(I270
I281
tp1769
sg6
(lp1770
I270
aI290
asg8
F1476791553316.239
sg9
(I363
I458
tp1771
sg11
F3.141592653589793
sa(dp1772
g2
(I270
I300
tp1773
sg4
(I270
I280
tp1774
sg6
(lp1775
I270
aI290
asg8
F1476791553397.5078
sg9
(I364
I458
tp1776
sg11
F3.141592653589793
sa(dp1777
g2
(I270
I300
tp1778
sg4
(I270
I280
tp1779
sg6
(lp1780
I270
aI290
asg8
F1476791553468.914
sg9
(I367
I458
tp1781
sg11
F3.141592653589793
sa(dp1782
g2
(I270
I299
tp1783
sg4
(I271
I281
tp1784
sg6
(lp1785
I270
aI290
asg8
F1476791553603.2888
sg9
(I367
I459
tp1786
sg11
F3.19709115883551
sa(dp1787
g2
(I270
I300
tp1788
sg4
(I270
I281
tp1789
sg6
(lp1790
I270
aI290
asg8
F1476791553696.789
sg9
(I368
I459
tp1791
sg11
F3.141592653589793
sa(dp1792
g2
(I270
I299
tp1793
sg4
(I270
I281
tp1794
sg6
(lp1795
I270
aI290
asg8
F1476791553784.9531
sg9
(I369
I460
tp1796
sg11
F3.141592653589793
sa(dp1797
g2
(I270
I300
tp1798
sg4
(I270
I281
tp1799
sg6
(lp1800
I270
aI290
asg8
F1476791553871.711
sg9
(I370
I459
tp1801
sg11
F3.141592653589793
sa(dp1802
g2
(I270
I300
tp1803
sg4
(I270
I280
tp1804
sg6
(lp1805
I270
aI290
asg8
F1476791553958.467
sg9
(I370
I459
tp1806
sg11
F3.141592653589793
sa(dp1807
g2
(I270
I300
tp1808
sg4
(I270
I280
tp1809
sg6
(lp1810
I270
aI290
asg8
F1476791554052.85
sg9
(I371
I459
tp1811
sg11
F3.141592653589793
sa(dp1812
g2
(I270
I300
tp1813
sg4
(I270
I280
tp1814
sg6
(lp1815
I270
aI290
asg8
F1476791554140.554
sg9
(I371
I460
tp1816
sg11
F3.141592653589793
sa(dp1817
g2
(I270
I300
tp1818
sg4
(I270
I281
tp1819
sg6
(lp1820
I270
aI290
asg8
F1476791554233.692
sg9
(I371
I460
tp1821
sg11
F3.141592653589793
sa(dp1822
g2
(I270
I300
tp1823
sg4
(I270
I280
tp1824
sg6
(lp1825
I270
aI290
asg8
F1476791554322.905
sg9
(I370
I460
tp1826
sg11
F3.141592653589793
sa(dp1827
g2
(I269
I299
tp1828
sg4
(I270
I280
tp1829
sg6
(lp1830
I269
aI289
asg8
F1476791554417.989
sg9
(I370
I460
tp1831
sg11
F3.1941757152007346
sa(dp1832
g2
(I270
I300
tp1833
sg4
(I270
I281
tp1834
sg6
(lp1835
I270
aI290
asg8
F1476791554484.2898
sg9
(I370
I460
tp1836
sg11
F3.141592653589793
sa(dp1837
g2
(I269
I300
tp1838
sg4
(I270
I280
tp1839
sg6
(lp1840
I269
aI290
asg8
F1476791554560.155
sg9
(I371
I460
tp1841
sg11
F3.191551049311736
sa(dp1842
g2
(I270
I300
tp1843
sg4
(I270
I280
tp1844
sg6
(lp1845
I270
aI290
asg8
F1476791554640.103
sg9
(I373
I458
tp1846
sg11
F3.141592653589793
sa(dp1847
g2
(I270
I300
tp1848
sg4
(I270
I280
tp1849
sg6
(lp1850
I270
aI290
asg8
F1476791554714.657
sg9
(I369
I458
tp1851
sg11
F3.141592653589793
sa(dp1852
g2
(I270
I300
tp1853
sg4
(I270
I280
tp1854
sg6
(lp1855
I270
aI290
asg8
F1476791554795.276
sg9
(I359
I455
tp1856
sg11
F3.141592653589793
sa(dp1857
g2
(I270
I300
tp1858
sg4
(I270
I280
tp1859
sg6
(lp1860
I270
aI290
asg8
F1476791554896.544
sg9
(I349
I452
tp1861
sg11
F3.141592653589793
sa(dp1862
g2
(I272
I299
tp1863
sg4
(I270
I280
tp1864
sg6
(lp1865
I271
aI289
asg8
F1476791555007.652
sg9
(I343
I450
tp1866
sg11
F3.036715714859559
sa(dp1867
g2
(I270
I300
tp1868
sg4
(I270
I280
tp1869
sg6
(lp1870
I270
aI290
asg8
F1476791555098.181
sg9
(I333
I447
tp1871
sg11
F3.141592653589793
sa(dp1872
g2
(I270
I300
tp1873
sg4
(I270
I281
tp1874
sg6
(lp1875
I270
aI290
asg8
F1476791555175.029
sg9
(I323
I444
tp1876
sg11
F3.141592653589793
sa(dp1877
g2
(I270
I299
tp1878
sg4
(I270
I280
tp1879
sg6
(lp1880
I270
aI289
asg8
F1476791555257.0852
sg9
(I317
I442
tp1881
sg11
F3.141592653589793
sa(dp1882
g2
(I270
I299
tp1883
sg4
(I270
I281
tp1884
sg6
(lp1885
I270
aI290
asg8
F1476791555348.9011
sg9
(I307
I439
tp1886
sg11
F3.141592653589793
sa(dp1887
g2
(I269
I300
tp1888
sg4
(I270
I281
tp1889
sg6
(lp1890
I269
aI290
asg8
F1476791555440.736
sg9
(I298
I436
tp1891
sg11
F3.1941757152007346
sa(dp1892
g2
(I270
I299
tp1893
sg4
(I270
I280
tp1894
sg6
(lp1895
I270
aI289
asg8
F1476791555522.613
sg9
(I292
I434
tp1896
sg11
F3.141592653589793
sa(dp1897
g2
(I270
I300
tp1898
sg4
(I270
I280
tp1899
sg6
(lp1900
I270
aI290
asg8
F1476791555599.364
sg9
(I283
I431
tp1901
sg11
F3.141592653589793
sa(dp1902
g2
(I270
I300
tp1903
sg4
(I270
I281
tp1904
sg6
(lp1905
I270
aI290
asg8
F1476791555715.3298
sg9
(I276
I428
tp1906
sg11
F3.141592653589793
sa(dp1907
g2
(I270
I300
tp1908
sg4
(I270
I281
tp1909
sg6
(lp1910
I270
aI290
asg8
F1476791555816.917
sg9
(I270
I427
tp1911
sg11
F3.141592653589793
sa(dp1912
g2
(I270
I300
tp1913
sg4
(I270
I281
tp1914
sg6
(lp1915
I270
aI290
asg8
F1476791555898.829
sg9
(I156
I496
tp1916
sg11
F3.141592653589793
sa(dp1917
g2
(I270
I300
tp1918
sg4
(I270
I281
tp1919
sg6
(lp1920
I270
aI290
asg8
F1476791555974.365
sg9
(I148
I498
tp1921
sg11
F3.141592653589793
sa(dp1922
g2
(I270
I300
tp1923
sg4
(I270
I280
tp1924
sg6
(lp1925
I270
aI290
asg8
F1476791556078.675
sg9
(I59
I515
tp1926
sg11
F3.141592653589793
sa(dp1927
g2
(I270
I300
tp1928
sg4
(I270
I280
tp1929
sg6
(lp1930
I270
aI290
asg8
F1476791556177.485
sg9
(I44
I514
tp1931
sg11
F3.141592653589793
sa(dp1932
g2
(I270
I300
tp1933
sg4
(I270
I280
tp1934
sg6
(lp1935
I270
aI290
asg8
F1476791556289.4631
sg9
(I58
I503
tp1936
sg11
F3.141592653589793
sa(dp1937
g2
(I270
I300
tp1938
sg4
(I270
I281
tp1939
sg6
(lp1940
I270
aI290
asg8
F1476791556370.166
sg9
(I39
I502
tp1941
sg11
F3.141592653589793
sa(dp1942
g2
(I270
I300
tp1943
sg4
(I270
I280
tp1944
sg6
(lp1945
I270
aI290
asg8
F1476791556431.553
sg9
(I222
I411
tp1946
sg11
F3.141592653589793
sa(dp1947
g2
(I270
I300
tp1948
sg4
(I270
I280
tp1949
sg6
(lp1950
I270
aI290
asg8
F1476791556498.024
sg9
(I60
I485
tp1951
sg11
F3.141592653589793
sa(dp1952
g2
(I270
I300
tp1953
sg4
(I270
I281
tp1954
sg6
(lp1955
I270
aI290
asg8
F1476791556581.947
sg9
(I56
I482
tp1956
sg11
F3.141592653589793
sa(dp1957
g2
(I269
I300
tp1958
sg4
(I270
I280
tp1959
sg6
(lp1960
I269
aI290
asg8
F1476791556678.951
sg9
(I205
I405
tp1961
sg11
F3.191551049311736
sa(dp1962
g2
(I270
I300
tp1963
sg4
(I270
I281
tp1964
sg6
(lp1965
I270
aI290
asg8
F1476791556788.115
sg9
(I199
I403
tp1966
sg11
F3.141592653589793
sa(dp1967
g2
(I270
I300
tp1968
sg4
(I270
I281
tp1969
sg6
(lp1970
I270
aI290
asg8
F1476791556878.33
sg9
(I194
I402
tp1971
sg11
F3.141592653589793
sa(dp1972
g2
(I269
I300
tp1973
sg4
(I270
I280
tp1974
sg6
(lp1975
I269
aI290
asg8
F1476791556969.904
sg9
(I28
I461
tp1976
sg11
F3.191551049311736
sa(dp1977
g2
(I270
I300
tp1978
sg4
(I270
I280
tp1979
sg6
(lp1980
I270
aI290
asg8
F1476791557056.8918
sg9
(I37
I459
tp1981
sg11
F3.141592653589793
sa(dp1982
g2
(I269
I300
tp1983
sg4
(I270
I280
tp1984
sg6
(lp1985
I269
aI290
asg8
F1476791557142.8262
sg9
(I37
I455
tp1986
sg11
F3.191551049311736
sa(dp1987
g2
(I270
I300
tp1988
sg4
(I270
I280
tp1989
sg6
(lp1990
I270
aI290
asg8
F1476791557257.7668
sg9
(I27
I453
tp1991
sg11
F3.141592653589793
sa(dp1992
g2
(I270
I300
tp1993
sg4
(I270
I281
tp1994
sg6
(lp1995
I270
aI290
asg8
F1476791557363.1748
sg9
(I167
I396
tp1996
sg11
F3.141592653589793
sa(dp1997
g2
(I270
I300
tp1998
sg4
(I270
I280
tp1999
sg6
(lp2000
I270
aI290
asg8
F1476791557431.9292
sg9
(I162
I394
tp2001
sg11
F3.141592653589793
sa(dp2002
g2
(I270
I300
tp2003
sg4
(I270
I280
tp2004
sg6
(lp2005
I270
aI290
asg8
F1476791557504.025
sg9
(I159
I394
tp2006
sg11
F3.141592653589793
sa(dp2007
g2
(I270
I299
tp2008
sg4
(I270
I280
tp2009
sg6
(lp2010
I270
aI289
asg8
F1476791557582.448
sg9
(I155
I393
tp2011
sg11
F3.141592653589793
sa(dp2012
g2
(I269
I300
tp2013
sg4
(I270
I280
tp2014
sg6
(lp2015
I269
aI290
asg8
F1476791557666.667
sg9
(I151
I392
tp2016
sg11
F3.191551049311736
sa(dp2017
g2
(I270
I300
tp2018
sg4
(I270
I280
tp2019
sg6
(lp2020
I270
aI290
asg8
F1476791557765.285
sg9
(I147
I391
tp2021
sg11
F3.141592653589793
sa(dp2022
g2
(I270
I300
tp2023
sg4
(I270
I280
tp2024
sg6
(lp2025
I270
aI290
asg8
F1476791557845.68
sg9
(I143
I391
tp2026
sg11
F3.141592653589793
sa(dp2027
g2
(I270
I299
tp2028
sg4
(I270
I281
tp2029
sg6
(lp2030
I270
aI290
asg8
F1476791557947.549
sg9
(I141
I390
tp2031
sg11
F3.141592653589793
sa(dp2032
g2
(I269
I300
tp2033
sg4
(I270
I280
tp2034
sg6
(lp2035
I269
aI290
asg8
F1476791558037.7642
sg9
(I138
I390
tp2036
sg11
F3.191551049311736
sa(dp2037
g2
(I270
I300
tp2038
sg4
(I270
I280
tp2039
sg6
(lp2040
I270
aI290
asg8
F1476791558123.796
sg9
(I135
I388
tp2041
sg11
F3.141592653589793
sa(dp2042
g2
(I270
I300
tp2043
sg4
(I270
I280
tp2044
sg6
(lp2045
I270
aI290
asg8
F1476791558203.8792
sg9
(I138
I385
tp2046
sg11
F3.141592653589793
sa(dp2047
g2
(I271
I299
tp2048
sg4
(I270
I280
tp2049
sg6
(lp2050
I270
aI289
asg8
F1476791558292.734
sg9
(I139
I379
tp2051
sg11
F3.0890095919788516
sa(dp2052
g2
(I269
I300
tp2053
sg4
(I270
I281
tp2054
sg6
(lp2055
I269
aI290
asg8
F1476791558369.668
sg9
(I141
I372
tp2056
sg11
F3.1941757152007346
sa(dp2057
g2
(I270
I300
tp2058
sg4
(I270
I281
tp2059
sg6
(lp2060
I270
aI290
asg8
F1476791558484.3909
sg9
(I142
I365
tp2061
sg11
F3.141592653589793
sa(dp2062
g2
(I270
I300
tp2063
sg4
(I270
I281
tp2064
sg6
(lp2065
I270
aI290
asg8
F1476791558567.432
sg9
(I141
I360
tp2066
sg11
F3.141592653589793
sa(dp2067
g2
(I270
I300
tp2068
sg4
(I270
I280
tp2069
sg6
(lp2070
I270
aI290
asg8
F1476791558651.9949
sg9
(I143
I354
tp2071
sg11
F3.141592653589793
sa(dp2072
g2
(I270
I300
tp2073
sg4
(I270
I280
tp2074
sg6
(lp2075
I270
aI290
asg8
F1476791558730.241
sg9
(I143
I347
tp2076
sg11
F3.141592653589793
sa(dp2077
g2
(I270
I300
tp2078
sg4
(I270
I281
tp2079
sg6
(lp2080
I270
aI290
asg8
F1476791558817.868
sg9
(I143
I343
tp2081
sg11
F3.141592653589793
sa(dp2082
g2
(I270
I300
tp2083
sg4
(I270
I280
tp2084
sg6
(lp2085
I270
aI290
asg8
F1476791558901.803
sg9
(I144
I338
tp2086
sg11
F3.141592653589793
sa(dp2087
g2
(I270
I300
tp2088
sg4
(I270
I281
tp2089
sg6
(lp2090
I270
aI290
asg8
F1476791558999.1592
sg9
(I145
I331
tp2091
sg11
F3.141592653589793
sa(dp2092
g2
(I269
I300
tp2093
sg4
(I270
I280
tp2094
sg6
(lp2095
I269
aI290
asg8
F1476791559090.399
sg9
(I145
I328
tp2096
sg11
F3.191551049311736
sa(dp2097
g2
(I270
I299
tp2098
sg4
(I270
I280
tp2099
sg6
(lp2100
I270
aI289
asg8
F1476791559178.477
sg9
(I145
I323
tp2101
sg11
F3.141592653589793
sa(dp2102
g2
(I270
I300
tp2103
sg4
(I270
I280
tp2104
sg6
(lp2105
I270
aI290
asg8
F1476791559265.3079
sg9
(I145
I319
tp2106
sg11
F3.141592653589793
sa(dp2107
g2
(I270
I299
tp2108
sg4
(I270
I280
tp2109
sg6
(lp2110
I270
aI289
asg8
F1476791559354.6099
sg9
(I146
I314
tp2111
sg11
F3.141592653589793
sa(dp2112
g2
(I270
I300
tp2113
sg4
(I270
I280
tp2114
sg6
(lp2115
I270
aI290
asg8
F1476791559429.1028
sg9
(I147
I309
tp2116
sg11
F3.141592653589793
sa(dp2117
g2
(I270
I300
tp2118
sg4
(I270
I280
tp2119
sg6
(lp2120
I270
aI290
asg8
F1476791559525.493
sg9
(I147
I306
tp2121
sg11
F3.141592653589793
sa(dp2122
g2
(I270
I300
tp2123
sg4
(I270
I281
tp2124
sg6
(lp2125
I270
aI290
asg8
F1476791559613.881
sg9
(I148
I302
tp2126
sg11
F3.141592653589793
sa(dp2127
g2
(I270
I300
tp2128
sg4
(I270
I281
tp2129
sg6
(lp2130
I270
aI290
asg8
F1476791559798.2012
sg9
(I150
I298
tp2131
sg11
F3.141592653589793
sa(dp2132
g2
(I270
I300
tp2133
sg4
(I270
I281
tp2134
sg6
(lp2135
I270
aI290
asg8
F1476791559897.458
sg9
(I150
I296
tp2136
sg11
F3.141592653589793
sa(dp2137
g2
(I270
I300
tp2138
sg4
(I270
I281
tp2139
sg6
(lp2140
I270
aI290
asg8
F1476791560000.117
sg9
(I150
I292
tp2141
sg11
F3.141592653589793
sa(dp2142
g2
(I270
I300
tp2143
sg4
(I270
I281
tp2144
sg6
(lp2145
I270
aI290
asg8
F1476791560084.044
sg9
(I149
I288
tp2146
sg11
F3.141592653589793
sa(dp2147
g2
(I270
I300
tp2148
sg4
(I270
I280
tp2149
sg6
(lp2150
I270
aI290
asg8
F1476791560170.682
sg9
(I149
I285
tp2151
sg11
F3.141592653589793
sa(dp2152
g2
(I270
I300
tp2153
sg4
(I270
I280
tp2154
sg6
(lp2155
I270
aI290
asg8
F1476791560251.3198
sg9
(I151
I282
tp2156
sg11
F3.141592653589793
sa(dp2157
g2
(I270
I300
tp2158
sg4
(I270
I281
tp2159
sg6
(lp2160
I270
aI290
asg8
F1476791560337.075
sg9
(I152
I278
tp2161
sg11
F3.141592653589793
sa(dp2162
g2
(I269
I300
tp2163
sg4
(I270
I281
tp2164
sg6
(lp2165
I269
aI290
asg8
F1476791560422.6848
sg9
(I152
I277
tp2166
sg11
F3.1941757152007346
sa(dp2167
g2
(I270
I300
tp2168
sg4
(I270
I280
tp2169
sg6
(lp2170
I270
aI290
asg8
F1476791560506.1072
sg9
(I153
I274
tp2171
sg11
F3.141592653589793
sa(dp2172
g2
(I271
I299
tp2173
sg4
(I270
I281
tp2174
sg6
(lp2175
I270
aI290
asg8
F1476791560583.001
sg9
(I153
I270
tp2176
sg11
F3.0860941483440762
sa(dp2177
g2
(I270
I299
tp2178
sg4
(I270
I280
tp2179
sg6
(lp2180
I270
aI289
asg8
F1476791560661.9092
sg9
(I156
I269
tp2181
sg11
F3.141592653589793
sa(dp2182
g2
(I270
I300
tp2183
sg4
(I270
I280
tp2184
sg6
(lp2185
I270
aI290
asg8
F1476791560724.426
sg9
(I150
I267
tp2186
sg11
F3.141592653589793
sa(dp2187
g2
(I270
I300
tp2188
sg4
(I270
I281
tp2189
sg6
(lp2190
I270
aI290
asg8
F1476791560782.328
sg9
(I144
I266
tp2191
sg11
F3.141592653589793
sa(dp2192
g2
(I270
I300
tp2193
sg4
(I270
I280
tp2194
sg6
(lp2195
I270
aI290
asg8
F1476791560864.635
sg9
(I140
I265
tp2196
sg11
F3.141592653589793
sa(dp2197
g2
(I270
I300
tp2198
sg4
(I270
I280
tp2199
sg6
(lp2200
I270
aI290
asg8
F1476791560951.46
sg9
(I134
I263
tp2201
sg11
F3.141592653589793
sa(dp2202
g2
(I270
I300
tp2203
sg4
(I270
I281
tp2204
sg6
(lp2205
I270
aI290
asg8
F1476791561048.9558
sg9
(I128
I262
tp2206
sg11
F3.141592653589793
sa(dp2207
g2
(I270
I300
tp2208
sg4
(I270
I281
tp2209
sg6
(lp2210
I270
aI290
asg8
F1476791561138.7788
sg9
(I124
I261
tp2211
sg11
F3.141592653589793
sa(dp2212
g2
(I270
I299
tp2213
sg4
(I270
I281
tp2214
sg6
(lp2215
I270
aI290
asg8
F1476791561227.36
sg9
(I120
I260
tp2216
sg11
F3.141592653589793
sa(dp2217
g2
(I270
I300
tp2218
sg4
(I270
I281
tp2219
sg6
(lp2220
I270
aI290
asg8
F1476791561317.7542
sg9
(I114
I259
tp2221
sg11
F3.141592653589793
sa(dp2222
g2
(I270
I300
tp2223
sg4
(I270
I281
tp2224
sg6
(lp2225
I270
aI290
asg8
F1476791561412.301
sg9
(I109
I258
tp2226
sg11
F3.141592653589793
sa(dp2227
g2
(I269
I300
tp2228
sg4
(I270
I280
tp2229
sg6
(lp2230
I269
aI290
asg8
F1476791561495.938
sg9
(I106
I257
tp2231
sg11
F3.191551049311736
sa(dp2232
g2
(I270
I300
tp2233
sg4
(I270
I280
tp2234
sg6
(lp2235
I270
aI290
asg8
F1476791561586.141
sg9
(I101
I256
tp2236
sg11
F3.141592653589793
sa(dp2237
g2
(I270
I300
tp2238
sg4
(I270
I280
tp2239
sg6
(lp2240
I270
aI290
asg8
F1476791561670.969
sg9
(I97
I256
tp2241
sg11
F3.141592653589793
sa(dp2242
g2
(I270
I300
tp2243
sg4
(I270
I281
tp2244
sg6
(lp2245
I270
aI290
asg8
F1476791561791.432
sg9
(I92
I255
tp2246
sg11
F3.141592653589793
sa(dp2247
g2
(I270
I300
tp2248
sg4
(I270
I280
tp2249
sg6
(lp2250
I270
aI290
asg8
F1476791561869.185
sg9
(I90
I255
tp2251
sg11
F3.141592653589793
sa(dp2252
g2
(I270
I300
tp2253
sg4
(I270
I281
tp2254
sg6
(lp2255
I270
aI290
asg8
F1476791561956.311
sg9
(I85
I255
tp2256
sg11
F3.141592653589793
sa(dp2257
g2
(I270
I300
tp2258
sg4
(I270
I280
tp2259
sg6
(lp2260
I270
aI290
asg8
F1476791562057.3772
sg9
(I82
I255
tp2261
sg11
F3.141592653589793
sa(dp2262
g2
(I270
I300
tp2263
sg4
(I270
I281
tp2264
sg6
(lp2265
I270
aI290
asg8
F1476791562144.816
sg9
(I78
I255
tp2266
sg11
F3.141592653589793
sa(dp2267
g2
(I273
I304
tp2268
sg4
(I270
I281
tp2269
sg6
(lp2270
I271
aI292
asg8
F1476791562220.433
sg9
(I75
I254
tp2271
sg11
F3.011890116433881
sa(dp2272
g2
(I270
I300
tp2273
sg4
(I270
I280
tp2274
sg6
(lp2275
I270
aI290
asg8
F1476791562330.1648
sg9
(I71
I254
tp2276
sg11
F3.141592653589793
sa(dp2277
g2
(I270
I300
tp2278
sg4
(I270
I281
tp2279
sg6
(lp2280
I270
aI290
asg8
F1476791562393.198
sg9
(I70
I254
tp2281
sg11
F3.141592653589793
sa(dp2282
g2
(I270
I300
tp2283
sg4
(I270
I281
tp2284
sg6
(lp2285
I270
aI290
asg8
F1476791562490.0588
sg9
(I68
I255
tp2286
sg11
F3.141592653589793
sa(dp2287
g2
(I270
I300
tp2288
sg4
(I270
I281
tp2289
sg6
(lp2290
I270
aI290
asg8
F1476791562591.902
sg9
(I66
I255
tp2291
sg11
F3.141592653589793
sa(dp2292
g2
(I270
I300
tp2293
sg4
(I270
I281
tp2294
sg6
(lp2295
I270
aI290
asg8
F1476791562673.527
sg9
(I64
I255
tp2296
sg11
F3.141592653589793
sa(dp2297
g2
(I270
I300
tp2298
sg4
(I270
I280
tp2299
sg6
(lp2300
I270
aI290
asg8
F1476791562762.9558
sg9
(I61
I256
tp2301
sg11
F3.141592653589793
sa(dp2302
g2
(I270
I300
tp2303
sg4
(I270
I280
tp2304
sg6
(lp2305
I270
aI290
asg8
F1476791562848.8628
sg9
(I58
I256
tp2306
sg11
F3.141592653589793
sa(dp2307
g2
(I270
I300
tp2308
sg4
(I270
I280
tp2309
sg6
(lp2310
I270
aI290
asg8
F1476791562932.62
sg9
(I54
I256
tp2311
sg11
F3.141592653589793
sa(dp2312
g2
(I270
I300
tp2313
sg4
(I270
I280
tp2314
sg6
(lp2315
I270
aI290
asg8
F1476791563039.8208
sg9
(I52
I257
tp2316
sg11
F3.141592653589793
sa(dp2317
g2
(I270
I300
tp2318
sg4
(I270
I281
tp2319
sg6
(lp2320
I270
aI290
asg8
F1476791563152.944
sg9
(I52
I258
tp2321
sg11
F3.141592653589793
sa(dp2322
g2
(I270
I299
tp2323
sg4
(I270
I280
tp2324
sg6
(lp2325
I270
aI289
asg8
F1476791563246.5752
sg9
(I50
I258
tp2326
sg11
F3.141592653589793
sa(dp2327
g2
(I270
I300
tp2328
sg4
(I270
I280
tp2329
sg6
(lp2330
I270
aI290
asg8
F1476791563311.08
sg9
(I49
I259
tp2331
sg11
F3.141592653589793
sa(dp2332
g2
(I269
I300
tp2333
sg4
(I270
I281
tp2334
sg6
(lp2335
I269
aI290
asg8
F1476791563371.855
sg9
(I48
I259
tp2336
sg11
F3.1941757152007346
sa(dp2337
g2
(I270
I300
tp2338
sg4
(I270
I280
tp2339
sg6
(lp2340
I270
aI290
asg8
F1476791563454.253
sg9
(I47
I259
tp2341
sg11
F3.141592653589793
sa(dp2342
g2
(I270
I299
tp2343
sg4
(I270
I280
tp2344
sg6
(lp2345
I270
aI289
asg8
F1476791563533.078
sg9
(I46
I260
tp2346
sg11
F3.141592653589793
sa(dp2347
g2
(I270
I300
tp2348
sg4
(I270
I281
tp2349
sg6
(lp2350
I270
aI290
asg8
F1476791563638.273
sg9
(I47
I260
tp2351
sg11
F3.141592653589793
sa(dp2352
g2
(I271
I299
tp2353
sg4
(I270
I281
tp2354
sg6
(lp2355
I270
aI290
asg8
F1476791563745.869
sg9
(I46
I261
tp2356
sg11
F3.0860941483440762
sa(dp2357
g2
(I270
I300
tp2358
sg4
(I270
I280
tp2359
sg6
(lp2360
I270
aI290
asg8
F1476791563837.3188
sg9
(I45
I261
tp2361
sg11
F3.141592653589793
sa(dp2362
g2
(I269
I300
tp2363
sg4
(I270
I280
tp2364
sg6
(lp2365
I269
aI290
asg8
F1476791563937.0288
sg9
(I46
I261
tp2366
sg11
F3.191551049311736
sa(dp2367
g2
(I269
I300
tp2368
sg4
(I270
I281
tp2369
sg6
(lp2370
I269
aI290
asg8
F1476791564020.211
sg9
(I45
I261
tp2371
sg11
F3.1941757152007346
sa(dp2372
g2
(I270
I300
tp2373
sg4
(I270
I280
tp2374
sg6
(lp2375
I270
aI290
asg8
F1476791564104.9111
sg9
(I45
I261
tp2376
sg11
F3.141592653589793
sa(dp2377
g2
(I270
I300
tp2378
sg4
(I270
I281
tp2379
sg6
(lp2380
I270
aI290
asg8
F1476791564188.363
sg9
(I45
I261
tp2381
sg11
F3.141592653589793
sa(dp2382
g2
(I271
I299
tp2383
sg4
(I270
I280
tp2384
sg6
(lp2385
I270
aI289
asg8
F1476791564285.197
sg9
(I45
I261
tp2386
sg11
F3.0890095919788516
sa(dp2387
g2
(I270
I299
tp2388
sg4
(I270
I280
tp2389
sg6
(lp2390
I270
aI289
asg8
F1476791564363.93
sg9
(I46
I261
tp2391
sg11
F3.141592653589793
sa(dp2392
g2
(I270
I300
tp2393
sg4
(I270
I281
tp2394
sg6
(lp2395
I270
aI290
asg8
F1476791564452.603
sg9
(I47
I261
tp2396
sg11
F3.141592653589793
sa(dp2397
g2
(I271
I299
tp2398
sg4
(I270
I281
tp2399
sg6
(lp2400
I270
aI290
asg8
F1476791564540.196
sg9
(I45
I261
tp2401
sg11
F3.0860941483440762
sa(dp2402
g2
(I270
I300
tp2403
sg4
(I270
I281
tp2404
sg6
(lp2405
I270
aI290
asg8
F1476791564631.073
sg9
(I47
I260
tp2406
sg11
F3.141592653589793
sa(dp2407
g2
(I270
I300
tp2408
sg4
(I270
I280
tp2409
sg6
(lp2410
I270
aI290
asg8
F1476791564725.2231
sg9
(I49
I259
tp2411
sg11
F3.141592653589793
sa(dp2412
g2
(I270
I299
tp2413
sg4
(I270
I281
tp2414
sg6
(lp2415
I270
aI290
asg8
F1476791564817.655
sg9
(I51
I255
tp2416
sg11
F3.141592653589793
sa(dp2417
g2
(I270
I299
tp2418
sg4
(I270
I281
tp2419
sg6
(lp2420
I270
aI290
asg8
F1476791564899.2778
sg9
(I54
I250
tp2421
sg11
F3.141592653589793
sa(dp2422
g2
(I270
I300
tp2423
sg4
(I270
I281
tp2424
sg6
(lp2425
I270
aI290
asg8
F1476791564982.374
sg9
(I56
I246
tp2426
sg11
F3.141592653589793
sa(dp2427
g2
(I270
I300
tp2428
sg4
(I270
I281
tp2429
sg6
(lp2430
I270
aI290
asg8
F1476791565082.64
sg9
(I64
I241
tp2431
sg11
F3.141592653589793
sa(dp2432
g2
(I269
I299
tp2433
sg4
(I270
I281
tp2434
sg6
(lp2435
I269
aI290
asg8
F1476791565184.764
sg9
(I67
I235
tp2436
sg11
F3.19709115883551
sa(dp2437
g2
(I271
I299
tp2438
sg4
(I270
I281
tp2439
sg6
(lp2440
I270
aI290
asg8
F1476791565266.8418
sg9
(I69
I231
tp2441
sg11
F3.0860941483440762
sa(dp2442
g2
(I270
I300
tp2443
sg4
(I270
I281
tp2444
sg6
(lp2445
I270
aI290
asg8
F1476791565353.8762
sg9
(I71
I227
tp2446
sg11
F3.141592653589793
sa(dp2447
g2
(I270
I300
tp2448
sg4
(I270
I281
tp2449
sg6
(lp2450
I270
aI290
asg8
F1476791565473.398
sg9
(I72
I223
tp2451
sg11
F3.141592653589793
sa(dp2452
g2
(I270
I300
tp2453
sg4
(I270
I281
tp2454
sg6
(lp2455
I270
aI290
asg8
F1476791565556.152
sg9
(I75
I219
tp2456
sg11
F3.141592653589793
sa(dp2457
g2
(I269
I300
tp2458
sg4
(I270
I281
tp2459
sg6
(lp2460
I269
aI290
asg8
F1476791565629.683
sg9
(I77
I216
tp2461
sg11
F3.1941757152007346
sa(dp2462
g2
(I270
I300
tp2463
sg4
(I270
I280
tp2464
sg6
(lp2465
I270
aI290
asg8
F1476791565748.4429
sg9
(I80
I212
tp2466
sg11
F3.141592653589793
sa(dp2467
g2
(I270
I300
tp2468
sg4
(I270
I280
tp2469
sg6
(lp2470
I270
aI290
asg8
F1476791565838.126
sg9
(I83
I209
tp2471
sg11
F3.141592653589793
sa(dp2472
g2
(I269
I299
tp2473
sg4
(I270
I281
tp2474
sg6
(lp2475
I269
aI290
asg8
F1476791565930.01
sg9
(I85
I206
tp2476
sg11
F3.19709115883551
sa(dp2477
g2
(I270
I300
tp2478
sg4
(I270
I280
tp2479
sg6
(lp2480
I270
aI290
asg8
F1476791566039.7798
sg9
(I88
I203
tp2481
sg11
F3.141592653589793
sa(dp2482
g2
(I269
I300
tp2483
sg4
(I270
I280
tp2484
sg6
(lp2485
I269
aI290
asg8
F1476791566140.2249
sg9
(I91
I200
tp2486
sg11
F3.191551049311736
sa(dp2487
g2
(I270
I300
tp2488
sg4
(I270
I281
tp2489
sg6
(lp2490
I270
aI290
asg8
F1476791566227.7278
sg9
(I94
I199
tp2491
sg11
F3.141592653589793
sa(dp2492
g2
(I270
I299
tp2493
sg4
(I270
I280
tp2494
sg6
(lp2495
I270
aI289
asg8
F1476791566325.0798
sg9
(I96
I196
tp2496
sg11
F3.141592653589793
sa(dp2497
g2
(I270
I299
tp2498
sg4
(I270
I280
tp2499
sg6
(lp2500
I270
aI289
asg8
F1476791566409.472
sg9
(I99
I194
tp2501
sg11
F3.141592653589793
sa(dp2502
g2
(I270
I299
tp2503
sg4
(I270
I280
tp2504
sg6
(lp2505
I270
aI289
asg8
F1476791566487.4749
sg9
(I102
I191
tp2506
sg11
F3.141592653589793
sa(dp2507
g2
(I270
I300
tp2508
sg4
(I270
I280
tp2509
sg6
(lp2510
I270
aI290
asg8
F1476791566559.608
sg9
(I105
I190
tp2511
sg11
F3.141592653589793
sa(dp2512
g2
(I270
I300
tp2513
sg4
(I270
I280
tp2514
sg6
(lp2515
I270
aI290
asg8
F1476791566628.669
sg9
(I107
I188
tp2516
sg11
F3.141592653589793
sa(dp2517
g2
(I270
I300
tp2518
sg4
(I270
I280
tp2519
sg6
(lp2520
I270
aI290
asg8
F1476791566720.0762
sg9
(I111
I186
tp2521
sg11
F3.141592653589793
sa(dp2522
g2
(I270
I300
tp2523
sg4
(I270
I281
tp2524
sg6
(lp2525
I270
aI290
asg8
F1476791566788.9558
sg9
(I112
I186
tp2526
sg11
F3.141592653589793
sa(dp2527
g2
(I270
I300
tp2528
sg4
(I270
I281
tp2529
sg6
(lp2530
I270
aI290
asg8
F1476791566887.79
sg9
(I116
I194
tp2531
sg11
F3.141592653589793
sa(dp2532
g2
(I270
I300
tp2533
sg4
(I270
I280
tp2534
sg6
(lp2535
I270
aI290
asg8
F1476791566974.171
sg9
(I120
I205
tp2536
sg11
F3.141592653589793
sa(dp2537
g2
(I270
I300
tp2538
sg4
(I270
I280
tp2539
sg6
(lp2540
I270
aI290
asg8
F1476791567052.571
sg9
(I123
I212
tp2541
sg11
F3.141592653589793
sa(dp2542
g2
(I270
I300
tp2543
sg4
(I270
I281
tp2544
sg6
(lp2545
I270
aI290
asg8
F1476791567138.073
sg9
(I127
I222
tp2546
sg11
F3.141592653589793
sa(dp2547
g2
(I270
I300
tp2548
sg4
(I270
I280
tp2549
sg6
(lp2550
I270
aI290
asg8
F1476791567235.513
sg9
(I168
I30
tp2551
sg11
F3.141592653589793
sa(dp2552
g2
(I270
I300
tp2553
sg4
(I270
I281
tp2554
sg6
(lp2555
I270
aI290
asg8
F1476791567321.359
sg9
(I134
I238
tp2556
sg11
F3.141592653589793
sa(dp2557
g2
(I270
I300
tp2558
sg4
(I270
I280
tp2559
sg6
(lp2560
I270
aI290
asg8
F1476791567416.58
sg9
(I139
I248
tp2561
sg11
F3.141592653589793
sa(dp2562
g2
(I270
I300
tp2563
sg4
(I270
I280
tp2564
sg6
(lp2565
I270
aI290
asg8
F1476791567519.354
sg9
(I144
I257
tp2566
sg11
F3.141592653589793
sa(dp2567
g2
(I270
I299
tp2568
sg4
(I270
I280
tp2569
sg6
(lp2570
I270
aI289
asg8
F1476791567596.259
sg9
(I146
I263
tp2571
sg11
F3.141592653589793
sa(dp2572
g2
(I270
I300
tp2573
sg4
(I270
I280
tp2574
sg6
(lp2575
I270
aI290
asg8
F1476791567678.9329
sg9
(I150
I272
tp2576
sg11
F3.141592653589793
sa(dp2577
g2
(I270
I300
tp2578
sg4
(I270
I280
tp2579
sg6
(lp2580
I270
aI290
asg8
F1476791567791.971
sg9
(I38
I249
tp2581
sg11
F3.141592653589793
sa(dp2582
g2
(I270
I300
tp2583
sg4
(I270
I281
tp2584
sg6
(lp2585
I270
aI290
asg8
F1476791567886.1948
sg9
(I41
I259
tp2586
sg11
F3.141592653589793
sa(dp2587
g2
(I270
I300
tp2588
sg4
(I270
I280
tp2589
sg6
(lp2590
I270
aI290
asg8
F1476791567968.224
sg9
(I34
I76
tp2591
sg11
F3.141592653589793
sa(dp2592
g2
(I270
I300
tp2593
sg4
(I270
I281
tp2594
sg6
(lp2595
I270
aI290
asg8
F1476791568057.872
sg9
(I94
I95
tp2596
sg11
F3.141592653589793
sa(dp2597
g2
(I270
I299
tp2598
sg4
(I270
I280
tp2599
sg6
(lp2600
I270
aI289
asg8
F1476791568151.945
sg9
(I126
I105
tp2601
sg11
F3.141592653589793
sa(dp2602
g2
(I270
I300
tp2603
sg4
(I270
I280
tp2604
sg6
(lp2605
I270
aI290
asg8
F1476791568245.5571
sg9
(I158
I111
tp2606
sg11
F3.141592653589793
sa(dp2607
g2
(I269
I300
tp2608
sg4
(I270
I280
tp2609
sg6
(lp2610
I269
aI290
asg8
F1476791568359.459
sg9
(I167
I110
tp2611
sg11
F3.191551049311736
sa(dp2612
g2
(I270
I299
tp2613
sg4
(I270
I280
tp2614
sg6
(lp2615
I270
aI289
asg8
F1476791568440.112
sg9
(I157
I110
tp2616
sg11
F3.141592653589793
sa(dp2617
g2
(I269
I300
tp2618
sg4
(I270
I280
tp2619
sg6
(lp2620
I269
aI290
asg8
F1476791568503.5342
sg9
(I142
I115
tp2621
sg11
F3.191551049311736
sa(dp2622
g2
(I270
I300
tp2623
sg4
(I270
I280
tp2624
sg6
(lp2625
I270
aI290
asg8
F1476791568574.9978
sg9
(I139
I125
tp2626
sg11
F3.141592653589793
sa(dp2627
g2
(I271
I300
tp2628
sg4
(I270
I280
tp2629
sg6
(lp2630
I270
aI290
asg8
F1476791568659.948
sg9
(I139
I134
tp2631
sg11
F3.09163425786785
sa(dp2632
g2
(I270
I300
tp2633
sg4
(I270
I280
tp2634
sg6
(lp2635
I270
aI290
asg8
F1476791568797.448
sg9
(I134
I146
tp2636
sg11
F3.141592653589793
sa(dp2637
g2
(I270
I300
tp2638
sg4
(I270
I280
tp2639
sg6
(lp2640
I270
aI290
asg8
F1476791568882.205
sg9
(I130
I156
tp2641
sg11
F3.141592653589793
sa(dp2642
g2
(I269
I300
tp2643
sg4
(I270
I281
tp2644
sg6
(lp2645
I269
aI290
asg8
F1476791568964.1719
sg9
(I131
I164
tp2646
sg11
F3.1941757152007346
sa(dp2647
g2
(I269
I300
tp2648
sg4
(I270
I280
tp2649
sg6
(lp2650
I269
aI290
asg8
F1476791569051.408
sg9
(I143
I173
tp2651
sg11
F3.191551049311736
sa(dp2652
g2
(I270
I300
tp2653
sg4
(I270
I280
tp2654
sg6
(lp2655
I270
aI290
asg8
F1476791569129.22
sg9
(I176
I184
tp2656
sg11
F3.141592653589793
sa(dp2657
g2
(I270
I300
tp2658
sg4
(I270
I280
tp2659
sg6
(lp2660
I270
aI290
asg8
F1476791569237.285
sg9
(I194
I188
tp2661
sg11
F3.141592653589793
sa(dp2662
g2
(I270
I300
tp2663
sg4
(I270
I280
tp2664
sg6
(lp2665
I270
aI290
asg8
F1476791569331.145
sg9
(I214
I192
tp2666
sg11
F3.141592653589793
sa(dp2667
g2
(I270
I300
tp2668
sg4
(I270
I281
tp2669
sg6
(lp2670
I270
aI290
asg8
F1476791569409.025
sg9
(I212
I384
tp2671
sg11
F3.141592653589793
sa(dp2672
g2
(I270
I300
tp2673
sg4
(I270
I281
tp2674
sg6
(lp2675
I270
aI290
asg8
F1476791569493.5142
sg9
(I233
I193
tp2676
sg11
F3.141592653589793
sa(dp2677
g2
(I270
I300
tp2678
sg4
(I270
I280
tp2679
sg6
(lp2680
I270
aI290
asg8
F1476791569576.623
sg9
(I217
I392
tp2681
sg11
F3.141592653589793
sa(dp2682
g2
(I270
I300
tp2683
sg4
(I270
I280
tp2684
sg6
(lp2685
I270
aI290
asg8
F1476791569669.437
sg9
(I239
I193
tp2686
sg11
F3.141592653589793
sa(dp2687
g2
(I270
I300
tp2688
sg4
(I269
I280
tp2689
sg6
(lp2690
I269
aI290
asg8
F1476791569760.332
sg9
(I222
I401
tp2691
sg11
F3.09163425786785
sa(dp2692
g2
(I270
I300
tp2693
sg4
(I270
I280
tp2694
sg6
(lp2695
I270
aI290
asg8
F1476791569862.059
sg9
(I224
I405
tp2696
sg11
F3.141592653589793
sa(dp2697
g2
(I270
I299
tp2698
sg4
(I270
I280
tp2699
sg6
(lp2700
I270
aI289
asg8
F1476791569943.815
sg9
(I226
I408
tp2701
sg11
F3.141592653589793
sa(dp2702
g2
(I270
I300
tp2703
sg4
(I270
I281
tp2704
sg6
(lp2705
I270
aI290
asg8
F1476791570030.2688
sg9
(I229
I412
tp2706
sg11
F3.141592653589793
sa(dp2707
g2
(I271
I300
tp2708
sg4
(I270
I281
tp2709
sg6
(lp2710
I270
aI290
asg8
F1476791570115.53
sg9
(I230
I416
tp2711
sg11
F3.0890095919788516
sa(dp2712
g2
(I270
I299
tp2713
sg4
(I271
I281
tp2714
sg6
(lp2715
I270
aI290
asg8
F1476791570198.4192
sg9
(I232
I418
tp2716
sg11
F3.19709115883551
sa(dp2717
g2
(I271
I300
tp2718
sg4
(I271
I281
tp2719
sg6
(lp2720
I271
aI290
asg8
F1476791570311.374
sg9
(I233
I422
tp2721
sg11
F3.141592653589793
sa(dp2722
g2
(I272
I300
tp2723
sg4
(I272
I281
tp2724
sg6
(lp2725
I272
aI290
asg8
F1476791570381.349
sg9
(I235
I425
tp2726
sg11
F3.141592653589793
sa(dp2727
g2
(I274
I300
tp2728
sg4
(I273
I281
tp2729
sg6
(lp2730
I273
aI290
asg8
F1476791570461.7651
sg9
(I237
I428
tp2731
sg11
F3.0890095919788516
sa(dp2732
g2
(I275
I300
tp2733
sg4
(I273
I281
tp2734
sg6
(lp2735
I274
aI290
asg8
F1476791570549.222
sg9
(I238
I430
tp2736
sg11
F3.036715714859559
sa(dp2737
g2
(I272
I300
tp2738
sg4
(I274
I280
tp2739
sg6
(lp2740
I273
aI290
asg8
F1476791570644.9832
sg9
(I241
I432
tp2741
sg11
F3.241261306080955
sa(dp2742
g2
(I275
I299
tp2743
sg4
(I275
I281
tp2744
sg6
(lp2745
I275
aI290
asg8
F1476791570760.907
sg9
(I242
I431
tp2746
sg11
F3.141592653589793
sa(dp2747
g2
(I275
I300
tp2748
sg4
(I276
I281
tp2749
sg6
(lp2750
I275
aI290
asg8
F1476791570900.502
sg9
(I242
I423
tp2751
sg11
F3.1941757152007346
sa(dp2752
g2
(I277
I300
tp2753
sg4
(I278
I281
tp2754
sg6
(lp2755
I277
aI290
asg8
F1476791570960.406
sg9
(I234
I411
tp2756
sg11
F3.1941757152007346
sa(dp2757
g2
(I279
I300
tp2758
sg4
(I281
I281
tp2759
sg6
(lp2760
I280
aI290
asg8
F1476791571028.3662
sg9
(I227
I398
tp2761
sg11
F3.246469592320027
sa(dp2762
g2
(I280
I300
tp2763
sg4
(I282
I281
tp2764
sg6
(lp2765
I281
aI290
asg8
F1476791571102.514
sg9
(I223
I389
tp2766
sg11
F3.246469592320027
sa(dp2767
g2
(I281
I301
tp2768
sg4
(I283
I281
tp2769
sg6
(lp2770
I282
aI291
asg8
F1476791571200.4312
sg9
(I110
I467
tp2771
sg11
F3.241261306080955
sa(dp2772
g2
(I283
I300
tp2773
sg4
(I285
I281
tp2774
sg6
(lp2775
I284
aI290
asg8
F1476791571281.424
sg9
(I210
I364
tp2776
sg11
F3.246469592320027
sa(dp2777
g2
(I286
I300
tp2778
sg4
(I287
I281
tp2779
sg6
(lp2780
I286
aI290
asg8
F1476791571358.119
sg9
(I12
I429
tp2781
sg11
F3.1941757152007346
sa(dp2782
g2
(I288
I300
tp2783
sg4
(I288
I282
tp2784
sg6
(lp2785
I288
aI291
asg8
F1476791571443.923
sg9
(I201
I344
tp2786
sg11
F3.141592653589793
sa(dp2787
g2
(I290
I300
tp2788
sg4
(I290
I281
tp2789
sg6
(lp2790
I290
aI290
asg8
F1476791571533.704
sg9
(I194
I332
tp2791
sg11
F3.141592653589793
sa(dp2792
g2
(I293
I300
tp2793
sg4
(I292
I282
tp2794
sg6
(lp2795
I292
aI291
asg8
F1476791571631.242
sg9
(I188
I321
tp2796
sg11
F3.0860941483440762
sa(dp2797
g2
(I293
I301
tp2798
sg4
(I293
I282
tp2799
sg6
(lp2800
I293
aI291
asg8
F1476791571753.4001
sg9
(I318
I179
tp2801
sg11
F3.141592653589793
sa(dp2802
g2
(I297
I300
tp2803
sg4
(I295
I282
tp2804
sg6
(lp2805
I296
aI291
asg8
F1476791571854.4668
sg9
(I307
I183
tp2806
sg11
F3.0309354324158977
sa(dp2807
g2
(I298
I300
tp2808
sg4
(I298
I282
tp2809
sg6
(lp2810
I298
aI291
asg8
F1476791571935.8972
sg9
(I174
I291
tp2811
sg11
F3.141592653589793
sa(dp2812
g2
(I298
I301
tp2813
sg4
(I298
I283
tp2814
sg6
(lp2815
I298
aI292
asg8
F1476791572033.792
sg9
(I171
I283
tp2816
sg11
F3.141592653589793
sa(dp2817
g2
(I298
I302
tp2818
sg4
(I297
I284
tp2819
sg6
(lp2820
I297
aI293
asg8
F1476791572126.087
sg9
(I167
I272
tp2821
sg11
F3.0860941483440762
sa(dp2822
g2
(I297
I302
tp2823
sg4
(I296
I284
tp2824
sg6
(lp2825
I296
aI293
asg8
F1476791572217.3901
sg9
(I161
I261
tp2826
sg11
F3.0860941483440762
sa(dp2827
g2
(I298
I302
tp2828
sg4
(I295
I283
tp2829
sg6
(lp2830
I296
aI292
asg8
F1476791572316.2031
sg9
(I61
I324
tp2831
sg11
F2.984990776607778
sa(dp2832
g2
(I298
I302
tp2833
sg4
(I294
I283
tp2834
sg6
(lp2835
I296
aI292
asg8
F1476791572403.614
sg9
(I427
I160
tp2836
sg11
F2.9340964271545906
sa(dp2837
g2
(I297
I303
tp2838
sg4
(I295
I284
tp2839
sg6
(lp2840
I296
aI293
asg8
F1476791572474.987
sg9
(I426
I160
tp2841
sg11
F3.036715714859559
sa(dp2842
g2
(I297
I303
tp2843
sg4
(I295
I283
tp2844
sg6
(lp2845
I296
aI293
asg8
F1476791572543.026
sg9
(I425
I160
tp2846
sg11
F3.0419240010986313
sa(dp2847
g2
(I297
I303
tp2848
sg4
(I296
I284
tp2849
sg6
(lp2850
I296
aI293
asg8
F1476791572625.0889
sg9
(I144
I216
tp2851
sg11
F3.0890095919788516
sa(dp2852
g2
(I298
I303
tp2853
sg4
(I298
I284
tp2854
sg6
(lp2855
I298
aI293
asg8
F1476791572703.389
sg9
(I141
I207
tp2856
sg11
F3.141592653589793
sa(dp2857
g2
(I299
I303
tp2858
sg4
(I298
I284
tp2859
sg6
(lp2860
I298
aI293
asg8
F1476791572794.7349
sg9
(I138
I200
tp2861
sg11
F3.0890095919788516
sa(dp2862
g2
(I301
I303
tp2863
sg4
(I299
I284
tp2864
sg6
(lp2865
I300
aI293
asg8
F1476791572885.534
sg9
(I135
I190
tp2866
sg11
F3.036715714859559
sa(dp2867
g2
(I301
I303
tp2868
sg4
(I300
I284
tp2869
sg6
(lp2870
I300
aI293
asg8
F1476791572960.9448
sg9
(I133
I183
tp2871
sg11
F3.0890095919788516
sa(dp2872
g2
(I302
I303
tp2873
sg4
(I300
I284
tp2874
sg6
(lp2875
I301
aI293
asg8
F1476791573047.999
sg9
(I129
I174
tp2876
sg11
F3.036715714859559
sa(dp2877
g2
(I301
I303
tp2878
sg4
(I298
I283
tp2879
sg6
(lp2880
I299
aI293
asg8
F1476791573130.813
sg9
(I127
I165
tp2881
sg11
F2.992702705980296
sa(dp2882
g2
(I301
I303
tp2883
sg4
(I298
I283
tp2884
sg6
(lp2885
I299
aI293
asg8
F1476791573214.5159
sg9
(I125
I159
tp2886
sg11
F2.992702705980296
sa(dp2887
g2
(I299
I303
tp2888
sg4
(I296
I283
tp2889
sg6
(lp2890
I297
aI293
asg8
F1476791573301.166
sg9
(I123
I150
tp2891
sg11
F2.992702705980296
sa(dp2892
g2
(I299
I303
tp2893
sg4
(I297
I284
tp2894
sg6
(lp2895
I298
aI293
asg8
F1476791573410.166
sg9
(I124
I150
tp2896
sg11
F3.036715714859559
sa(dp2897
g2
(I300
I302
tp2898
sg4
(I297
I283
tp2899
sg6
(lp2900
I298
aI292
asg8
F1476791573494.04
sg9
(I125
I152
tp2901
sg11
F2.984990776607778
sa(dp2902
g2
(I300
I303
tp2903
sg4
(I297
I284
tp2904
sg6
(lp2905
I298
aI293
asg8
F1476791573573.976
sg9
(I126
I155
tp2906
sg11
F2.984990776607778
sa(dp2907
g2
(I299
I302
tp2908
sg4
(I297
I284
tp2909
sg6
(lp2910
I298
aI293
asg8
F1476791573669.2659
sg9
(I128
I158
tp2911
sg11
F3.0309354324158977
sa(dp2912
g2
(I299
I303
tp2913
sg4
(I297
I284
tp2914
sg6
(lp2915
I298
aI293
asg8
F1476791573779.997
sg9
(I128
I160
tp2916
sg11
F3.036715714859559
sa(dp2917
g2
(I299
I303
tp2918
sg4
(I297
I283
tp2919
sg6
(lp2920
I298
aI293
asg8
F1476791573868.263
sg9
(I129
I163
tp2921
sg11
F3.0419240010986313
sa(dp2922
g2
(I299
I303
tp2923
sg4
(I297
I283
tp2924
sg6
(lp2925
I298
aI293
asg8
F1476791573958.19
sg9
(I131
I165
tp2926
sg11
F3.0419240010986313
sa(dp2927
g2
(I299
I302
tp2928
sg4
(I298
I283
tp2929
sg6
(lp2930
I298
aI292
asg8
F1476791574045.718
sg9
(I132
I167
tp2931
sg11
F3.0890095919788516
sa(dp2932
g2
(I300
I302
tp2933
sg4
(I297
I283
tp2934
sg6
(lp2935
I298
aI292
asg8
F1476791574133.697
sg9
(I133
I170
tp2936
sg11
F2.984990776607778
sa(dp2937
g2
(I299
I303
tp2938
sg4
(I297
I283
tp2939
sg6
(lp2940
I298
aI293
asg8
F1476791574208.059
sg9
(I135
I172
tp2941
sg11
F3.0419240010986313
sa(dp2942
g2
(I299
I303
tp2943
sg4
(I297
I283
tp2944
sg6
(lp2945
I298
aI293
asg8
F1476791574299.25
sg9
(I136
I173
tp2946
sg11
F3.0419240010986313
sa(dp2947
g2
(I299
I303
tp2948
sg4
(I297
I283
tp2949
sg6
(lp2950
I298
aI293
asg8
F1476791574380.792
sg9
(I138
I175
tp2951
sg11
F3.0419240010986313
sa(dp2952
g2
(I299
I302
tp2953
sg4
(I297
I283
tp2954
sg6
(lp2955
I298
aI292
asg8
F1476791574475.6912
sg9
(I139
I177
tp2956
sg11
F3.036715714859559
sa(dp2957
g2
(I300
I302
tp2958
sg4
(I297
I283
tp2959
sg6
(lp2960
I298
aI292
asg8
F1476791574565.233
sg9
(I139
I178
tp2961
sg11
F2.984990776607778
sa(dp2962
g2
(I299
I302
tp2963
sg4
(I298
I283
tp2964
sg6
(lp2965
I298
aI292
asg8
F1476791574680.1802
sg9
(I140
I179
tp2966
sg11
F3.0890095919788516
sa(dp2967
g2
(I300
I302
tp2968
sg4
(I298
I283
tp2969
sg6
(lp2970
I299
aI292
asg8
F1476791574759.843
sg9
(I142
I181
tp2971
sg11
F3.036715714859559
sa(dp2972
g2
(I299
I302
tp2973
sg4
(I297
I283
tp2974
sg6
(lp2975
I298
aI292
asg8
F1476791574839.994
sg9
(I142
I182
tp2976
sg11
F3.036715714859559
sa(dp2977
g2
(I300
I302
tp2978
sg4
(I297
I283
tp2979
sg6
(lp2980
I298
aI292
asg8
F1476791574935.996
sg9
(I143
I183
tp2981
sg11
F2.984990776607778
sa(dp2982
g2
(I301
I302
tp2983
sg4
(I297
I283
tp2984
sg6
(lp2985
I299
aI292
asg8
F1476791575024.873
sg9
(I144
I185
tp2986
sg11
F2.9340964271545906
sa(dp2987
g2
(I299
I302
tp2988
sg4
(I298
I283
tp2989
sg6
(lp2990
I298
aI292
asg8
F1476791575114.975
sg9
(I144
I185
tp2991
sg11
F3.0890095919788516
sa(dp2992
g2
(I302
I306
tp2993
sg4
(I297
I283
tp2994
sg6
(lp2995
I299
aI294
asg8
F1476791575210.7861
sg9
(I145
I186
tp2996
sg11
F2.9275319700259717
sa(dp2997
g2
(I299
I302
tp2998
sg4
(I298
I283
tp2999
sg6
(lp3000
I298
aI292
asg8
F1476791575291.344
sg9
(I146
I187
tp3001
sg11
F3.0890095919788516
sa(dp3002
g2
(I300
I302
tp3003
sg4
(I298
I283
tp3004
sg6
(lp3005
I299
aI292
asg8
F1476791575370.9768
sg9
(I146
I187
tp3006
sg11
F3.036715714859559
sa(dp3007
g2
(I299
I302
tp3008
sg4
(I298
I283
tp3009
sg6
(lp3010
I298
aI292
asg8
F1476791575472.464
sg9
(I147
I187
tp3011
sg11
F3.0890095919788516
sa(dp3012
g2
(I300
I302
tp3013
sg4
(I298
I283
tp3014
sg6
(lp3015
I299
aI292
asg8
F1476791575565.202
sg9
(I147
I187
tp3016
sg11
F3.036715714859559
sa(dp3017
g2
(I300
I302
tp3018
sg4
(I298
I283
tp3019
sg6
(lp3020
I299
aI292
asg8
F1476791575639.2231
sg9
(I147
I186
tp3021
sg11
F3.036715714859559
sa(dp3022
g2
(I300
I302
tp3023
sg4
(I298
I283
tp3024
sg6
(lp3025
I299
aI292
asg8
F1476791575729.965
sg9
(I147
I186
tp3026
sg11
F3.036715714859559
sa(dp3027
g2
(I299
I302
tp3028
sg4
(I297
I283
tp3029
sg6
(lp3030
I298
aI292
asg8
F1476791575827.75
sg9
(I146
I186
tp3031
sg11
F3.036715714859559
sa(dp3032
g2
(I299
I302
tp3033
sg4
(I297
I283
tp3034
sg6
(lp3035
I298
aI292
asg8
F1476791575925.567
sg9
(I146
I185
tp3036
sg11
F3.036715714859559
sa(dp3037
g2
(I299
I302
tp3038
sg4
(I297
I283
tp3039
sg6
(lp3040
I298
aI292
asg8
F1476791576033.081
sg9
(I147
I185
tp3041
sg11
F3.036715714859559
sa(dp3042
g2
(I299
I302
tp3043
sg4
(I298
I283
tp3044
sg6
(lp3045
I298
aI292
asg8
F1476791576123.095
sg9
(I148
I185
tp3046
sg11
F3.0890095919788516
sa(dp3047
g2
(I300
I302
tp3048
sg4
(I298
I283
tp3049
sg6
(lp3050
I299
aI292
asg8
F1476791576193.685
sg9
(I147
I185
tp3051
sg11
F3.036715714859559
sa(dp3052
g2
(I300
I302
tp3053
sg4
(I298
I283
tp3054
sg6
(lp3055
I299
aI292
asg8
F1476791576274.689
sg9
(I148
I185
tp3056
sg11
F3.036715714859559
sa(dp3057
g2
(I300
I302
tp3058
sg4
(I298
I283
tp3059
sg6
(lp3060
I299
aI292
asg8
F1476791576354.491
sg9
(I148
I184
tp3061
sg11
F3.036715714859559
sa(dp3062
g2
(I300
I302
tp3063
sg4
(I298
I283
tp3064
sg6
(lp3065
I299
aI292
asg8
F1476791576452.762
sg9
(I148
I184
tp3066
sg11
F3.036715714859559
sa(dp3067
g2
(I299
I302
tp3068
sg4
(I298
I283
tp3069
sg6
(lp3070
I298
aI292
asg8
F1476791576531.791
sg9
(I148
I185
tp3071
sg11
F3.0890095919788516
sa(dp3072
g2
(I299
I302
tp3073
sg4
(I298
I284
tp3074
sg6
(lp3075
I298
aI293
asg8
F1476791576608.602
sg9
(I148
I184
tp3076
sg11
F3.0860941483440762
sa(dp3077
g2
(I302
I302
tp3078
sg4
(I298
I283
tp3079
sg6
(lp3080
I300
aI292
asg8
F1476791576706.054
sg9
(I148
I185
tp3081
sg11
F2.9340964271545906
sa(dp3082
g2
(I299
I302
tp3083
sg4
(I298
I283
tp3084
sg6
(lp3085
I298
aI292
asg8
F1476791576788.521
sg9
(I148
I185
tp3086
sg11
F3.0890095919788516
sa(dp3087
g2
(I300
I302
tp3088
sg4
(I298
I283
tp3089
sg6
(lp3090
I299
aI292
asg8
F1476791576881.9639
sg9
(I148
I184
tp3091
sg11
F3.036715714859559
sa(dp3092
g2
(I299
I302
tp3093
sg4
(I298
I283
tp3094
sg6
(lp3095
I298
aI292
asg8
F1476791576969.9521
sg9
(I148
I185
tp3096
sg11
F3.0890095919788516
sa(dp3097
g2
(I300
I302
tp3098
sg4
(I298
I283
tp3099
sg6
(lp3100
I299
aI292
asg8
F1476791577058.801
sg9
(I148
I185
tp3101
sg11
F3.036715714859559
sa(dp3102
g2
(I299
I302
tp3103
sg4
(I298
I283
tp3104
sg6
(lp3105
I298
aI292
asg8
F1476791577169.831
sg9
(I148
I184
tp3106
sg11
F3.0890095919788516
sa(dp3107
g2
(I299
I302
tp3108
sg4
(I298
I284
tp3109
sg6
(lp3110
I298
aI293
asg8
F1476791577254.272
sg9
(I148
I184
tp3111
sg11
F3.0860941483440762
sa(dp3112
g2
(I299
I302
tp3113
sg4
(I298
I283
tp3114
sg6
(lp3115
I298
aI292
asg8
F1476791577337.337
sg9
(I148
I184
tp3116
sg11
F3.0890095919788516
sa(dp3117
g2
(I300
I302
tp3118
sg4
(I298
I283
tp3119
sg6
(lp3120
I299
aI292
asg8
F1476791577428.189
sg9
(I148
I184
tp3121
sg11
F3.036715714859559
sa(dp3122
g2
(I300
I302
tp3123
sg4
(I297
I283
tp3124
sg6
(lp3125
I298
aI292
asg8
F1476791577511.823
sg9
(I148
I185
tp3126
sg11
F2.984990776607778
sa(dp3127
g2
(I301
I302
tp3128
sg4
(I298
I283
tp3129
sg6
(lp3130
I299
aI292
asg8
F1476791577647.94
sg9
(I148
I184
tp3131
sg11
F2.984990776607778
sa(dp3132
g2
(I299
I302
tp3133
sg4
(I298
I283
tp3134
sg6
(lp3135
I298
aI292
asg8
F1476791577754.362
sg9
(I148
I184
tp3136
sg11
F3.0890095919788516
sa(dp3137
g2
(I300
I302
tp3138
sg4
(I297
I283
tp3139
sg6
(lp3140
I298
aI292
asg8
F1476791577842.927
sg9
(I148
I184
tp3141
sg11
F2.984990776607778
sa(dp3142
g2
(I299
I302
tp3143
sg4
(I298
I283
tp3144
sg6
(lp3145
I298
aI292
asg8
F1476791577934.425
sg9
(I148
I185
tp3146
sg11
F3.0890095919788516
sa(dp3147
g2
(I300
I302
tp3148
sg4
(I297
I283
tp3149
sg6
(lp3150
I298
aI292
asg8
F1476791578029.362
sg9
(I148
I185
tp3151
sg11
F2.984990776607778
sa(dp3152
g2
(I300
I302
tp3153
sg4
(I298
I283
tp3154
sg6
(lp3155
I299
aI292
asg8
F1476791578127.871
sg9
(I148
I185
tp3156
sg11
F3.036715714859559
sa(dp3157
g2
(I299
I302
tp3158
sg4
(I297
I283
tp3159
sg6
(lp3160
I298
aI292
asg8
F1476791578212.943
sg9
(I148
I185
tp3161
sg11
F3.036715714859559
sa(dp3162
g2
(I299
I302
tp3163
sg4
(I297
I283
tp3164
sg6
(lp3165
I298
aI292
asg8
F1476791578313.2551
sg9
(I340
I155
tp3166
sg11
F3.036715714859559
sa(dp3167
g2
(I299
I302
tp3168
sg4
(I297
I283
tp3169
sg6
(lp3170
I298
aI292
asg8
F1476791578400.5278
sg9
(I148
I185
tp3171
sg11
F3.036715714859559
sa(dp3172
g2
(I301
I302
tp3173
sg4
(I297
I283
tp3174
sg6
(lp3175
I299
aI292
asg8
F1476791578492.982
sg9
(I147
I184
tp3176
sg11
F2.9340964271545906
sa(dp3177
g2
(I301
I302
tp3178
sg4
(I297
I283
tp3179
sg6
(lp3180
I299
aI292
asg8
F1476791578560.3079
sg9
(I148
I184
tp3181
sg11
F2.9340964271545906
sa(dp3182
g2
(I300
I302
tp3183
sg4
(I297
I283
tp3184
sg6
(lp3185
I298
aI292
asg8
F1476791578626.89
sg9
(I148
I185
tp3186
sg11
F2.984990776607778
sa(dp3187
g2
(I299
I302
tp3188
sg4
(I298
I283
tp3189
sg6
(lp3190
I298
aI292
asg8
F1476791578697.223
sg9
(I148
I184
tp3191
sg11
F3.0890095919788516
sa(dp3192
g2
(I299
I302
tp3193
sg4
(I297
I283
tp3194
sg6
(lp3195
I298
aI292
asg8
F1476791578796.152
sg9
(I147
I184
tp3196
sg11
F3.036715714859559
sa(dp3197
g2
(I299
I302
tp3198
sg4
(I298
I283
tp3199
sg6
(lp3200
I298
aI292
asg8
F1476791578874.357
sg9
(I148
I185
tp3201
sg11
F3.0890095919788516
sa(dp3202
g2
(I299
I302
tp3203
sg4
(I297
I283
tp3204
sg6
(lp3205
I298
aI292
asg8
F1476791578950.687
sg9
(I148
I184
tp3206
sg11
F3.036715714859559
sa(dp3207
g2
(I299
I303
tp3208
sg4
(I297
I283
tp3209
sg6
(lp3210
I298
aI293
asg8
F1476791579035.195
sg9
(I148
I184
tp3211
sg11
F3.0419240010986313
sa(dp3212
g2
(I300
I303
tp3213
sg4
(I297
I283
tp3214
sg6
(lp3215
I298
aI293
asg8
F1476791579144.51
sg9
(I342
I159
tp3216
sg11
F2.992702705980296
sa(dp3217
g2
(I301
I302
tp3218
sg4
(I297
I283
tp3219
sg6
(lp3220
I299
aI292
asg8
F1476791579231.594
sg9
(I148
I184
tp3221
sg11
F2.9340964271545906
sa(dp3222
g2
(I299
I302
tp3223
sg4
(I298
I283
tp3224
sg6
(lp3225
I298
aI292
asg8
F1476791579318.6592
sg9
(I148
I184
tp3226
sg11
F3.0890095919788516
sa(dp3227
g2
(I299
I302
tp3228
sg4
(I298
I283
tp3229
sg6
(lp3230
I298
aI292
asg8
F1476791579412.911
sg9
(I148
I184
tp3231
sg11
F3.0890095919788516
sa(dp3232
g2
(I299
I302
tp3233
sg4
(I297
I283
tp3234
sg6
(lp3235
I298
aI292
asg8
F1476791579494.011
sg9
(I148
I184
tp3236
sg11
F3.036715714859559
sa(dp3237
g2
(I300
I302
tp3238
sg4
(I297
I283
tp3239
sg6
(lp3240
I298
aI292
asg8
F1476791579563.845
sg9
(I148
I184
tp3241
sg11
F2.984990776607778
sa(dp3242
g2
(I300
I302
tp3243
sg4
(I297
I283
tp3244
sg6
(lp3245
I298
aI292
asg8
F1476791579661.064
sg9
(I148
I185
tp3246
sg11
F2.984990776607778
sa(dp3247
g2
(I300
I302
tp3248
sg4
(I297
I283
tp3249
sg6
(lp3250
I298
aI292
asg8
F1476791579756.147
sg9
(I148
I184
tp3251
sg11
F2.984990776607778
sa(dp3252
g2
(I299
I302
tp3253
sg4
(I298
I283
tp3254
sg6
(lp3255
I298
aI292
asg8
F1476791579857.675
sg9
(I148
I184
tp3256
sg11
F3.0890095919788516
sa(dp3257
g2
(I299
I302
tp3258
sg4
(I297
I283
tp3259
sg6
(lp3260
I298
aI292
asg8
F1476791579951.843
sg9
(I347
I163
tp3261
sg11
F3.036715714859559
sa(dp3262
g2
(I300
I302
tp3263
sg4
(I297
I283
tp3264
sg6
(lp3265
I298
aI292
asg8
F1476791580048.311
sg9
(I148
I184
tp3266
sg11
F2.984990776607778
sa(dp3267
g2
(I300
I302
tp3268
sg4
(I297
I283
tp3269
sg6
(lp3270
I298
aI292
asg8
F1476791580139.076
sg9
(I148
I185
tp3271
sg11
F2.984990776607778
sa(dp3272
g2
(I299
I302
tp3273
sg4
(I297
I283
tp3274
sg6
(lp3275
I298
aI292
asg8
F1476791580226.6172
sg9
(I148
I185
tp3276
sg11
F3.036715714859559
sa(dp3277
g2
(I300
I302
tp3278
sg4
(I297
I283
tp3279
sg6
(lp3280
I298
aI292
asg8
F1476791580307.7131
sg9
(I148
I184
tp3281
sg11
F2.984990776607778
sa(dp3282
g2
(I299
I302
tp3283
sg4
(I297
I283
tp3284
sg6
(lp3285
I298
aI292
asg8
F1476791580383.836
sg9
(I148
I184
tp3286
sg11
F3.036715714859559
sa(dp3287
g2
(I300
I302
tp3288
sg4
(I298
I283
tp3289
sg6
(lp3290
I299
aI292
asg8
F1476791580463.0808
sg9
(I148
I184
tp3291
sg11
F3.036715714859559
sa(dp3292
g2
(I300
I302
tp3293
sg4
(I298
I283
tp3294
sg6
(lp3295
I299
aI292
asg8
F1476791580557.368
sg9
(I148
I184
tp3296
sg11
F3.036715714859559
sa(dp3297
g2
(I299
I303
tp3298
sg4
(I297
I283
tp3299
sg6
(lp3300
I298
aI293
asg8
F1476791580658.355
sg9
(I148
I185
tp3301
sg11
F3.0419240010986313
sa(dp3302
g2
(I301
I302
tp3303
sg4
(I298
I283
tp3304
sg6
(lp3305
I299
aI292
asg8
F1476791580755.966
sg9
(I148
I184
tp3306
sg11
F2.984990776607778
sa(dp3307
g2
(I300
I302
tp3308
sg4
(I297
I283
tp3309
sg6
(lp3310
I298
aI292
asg8
F1476791580837.2048
sg9
(I148
I185
tp3311
sg11
F2.984990776607778
sa(dp3312
g2
(I300
I302
tp3313
sg4
(I297
I283
tp3314
sg6
(lp3315
I298
aI292
asg8
F1476791580930.367
sg9
(I148
I184
tp3316
sg11
F2.984990776607778
sa(dp3317
g2
(I299
I302
tp3318
sg4
(I297
I283
tp3319
sg6
(lp3320
I298
aI292
asg8
F1476791581027.907
sg9
(I147
I184
tp3321
sg11
F3.036715714859559
sa(dp3322
g2
(I299
I302
tp3323
sg4
(I297
I283
tp3324
sg6
(lp3325
I298
aI292
asg8
F1476791581118.388
sg9
(I148
I184
tp3326
sg11
F3.036715714859559
sa(dp3327
g2
(I301
I302
tp3328
sg4
(I297
I283
tp3329
sg6
(lp3330
I299
aI292
asg8
F1476791581211.2578
sg9
(I148
I184
tp3331
sg11
F2.9340964271545906
sa(dp3332
g2
(I299
I302
tp3333
sg4
(I297
I283
tp3334
sg6
(lp3335
I298
aI292
asg8
F1476791581298.141
sg9
(I148
I185
tp3336
sg11
F3.036715714859559
sa(dp3337
g2
(I300
I302
tp3338
sg4
(I297
I283
tp3339
sg6
(lp3340
I298
aI292
asg8
F1476791581375.504
sg9
(I148
I184
tp3341
sg11
F2.984990776607778
sa(dp3342
g2
(I299
I302
tp3343
sg4
(I298
I283
tp3344
sg6
(lp3345
I298
aI292
asg8
F1476791581460.451
sg9
(I148
I184
tp3346
sg11
F3.0890095919788516
sa(dp3347
g2
(I300
I302
tp3348
sg4
(I297
I283
tp3349
sg6
(lp3350
I298
aI292
asg8
F1476791581547.8
sg9
(I148
I184
tp3351
sg11
F2.984990776607778
sa(dp3352
g2
(I299
I302
tp3353
sg4
(I297
I283
tp3354
sg6
(lp3355
I298
aI292
asg8
F1476791581627.332
sg9
(I148
I184
tp3356
sg11
F3.036715714859559
sa(dp3357
g2
(I299
I302
tp3358
sg4
(I297
I283
tp3359
sg6
(lp3360
I298
aI292
asg8
F1476791581740.633
sg9
(I148
I184
tp3361
sg11
F3.036715714859559
sa(dp3362
g2
(I300
I302
tp3363
sg4
(I298
I283
tp3364
sg6
(lp3365
I299
aI292
asg8
F1476791581827.067
sg9
(I148
I184
tp3366
sg11
F3.036715714859559
sa(dp3367
g2
(I300
I302
tp3368
sg4
(I297
I283
tp3369
sg6
(lp3370
I298
aI292
asg8
F1476791581904.4011
sg9
(I148
I184
tp3371
sg11
F2.984990776607778
sa(dp3372
g2
(I300
I302
tp3373
sg4
(I297
I283
tp3374
sg6
(lp3375
I298
aI292
asg8
F1476791582002.416
sg9
(I148
I184
tp3376
sg11
F2.984990776607778
sa(dp3377
g2
(I300
I302
tp3378
sg4
(I297
I283
tp3379
sg6
(lp3380
I298
aI292
asg8
F1476791582097.747
sg9
(I344
I159
tp3381
sg11
F2.984990776607778
sa(dp3382
g2
(I300
I302
tp3383
sg4
(I297
I283
tp3384
sg6
(lp3385
I298
aI292
asg8
F1476791582179.6702
sg9
(I148
I184
tp3386
sg11
F2.984990776607778
sa(dp3387
g2
(I300
I302
tp3388
sg4
(I298
I283
tp3389
sg6
(lp3390
I299
aI292
asg8
F1476791582254.471
sg9
(I148
I185
tp3391
sg11
F3.036715714859559
sa(dp3392
g2
(I300
I302
tp3393
sg4
(I297
I283
tp3394
sg6
(lp3395
I298
aI292
asg8
F1476791582342.392
sg9
(I148
I185
tp3396
sg11
F2.984990776607778
sa(dp3397
g2
(I299
I302
tp3398
sg4
(I297
I283
tp3399
sg6
(lp3400
I298
aI292
asg8
F1476791582434.794
sg9
(I148
I184
tp3401
sg11
F3.036715714859559
sa(dp3402
g2
(I300
I302
tp3403
sg4
(I297
I283
tp3404
sg6
(lp3405
I298
aI292
asg8
F1476791582526.241
sg9
(I148
I184
tp3406
sg11
F2.984990776607778
sa(dp3407
g2
(I299
I303
tp3408
sg4
(I297
I283
tp3409
sg6
(lp3410
I298
aI293
asg8
F1476791582607.28
sg9
(I148
I184
tp3411
sg11
F3.0419240010986313
sa(dp3412
g2
(I300
I302
tp3413
sg4
(I297
I283
tp3414
sg6
(lp3415
I298
aI292
asg8
F1476791582695.08
sg9
(I148
I184
tp3416
sg11
F2.984990776607778
sa(dp3417
g2
(I300
I302
tp3418
sg4
(I297
I283
tp3419
sg6
(lp3420
I298
aI292
asg8
F1476791582780.7769
sg9
(I148
I184
tp3421
sg11
F2.984990776607778
sa(dp3422
g2
(I300
I302
tp3423
sg4
(I297
I283
tp3424
sg6
(lp3425
I298
aI292
asg8
F1476791582872.019
sg9
(I148
I184
tp3426
sg11
F2.984990776607778
sa(dp3427
g2
(I300
I302
tp3428
sg4
(I297
I283
tp3429
sg6
(lp3430
I298
aI292
asg8
F1476791582956.025
sg9
(I148
I184
tp3431
sg11
F2.984990776607778
sa(dp3432
g2
(I299
I302
tp3433
sg4
(I298
I283
tp3434
sg6
(lp3435
I298
aI292
asg8
F1476791583047.991
sg9
(I148
I184
tp3436
sg11
F3.0890095919788516
sa(dp3437
g2
(I300
I302
tp3438
sg4
(I297
I283
tp3439
sg6
(lp3440
I298
aI292
asg8
F1476791583132.111
sg9
(I148
I185
tp3441
sg11
F2.984990776607778
sa(dp3442
g2
(I300
I302
tp3443
sg4
(I298
I284
tp3444
sg6
(lp3445
I299
aI293
asg8
F1476791583246.7861
sg9
(I148
I185
tp3446
sg11
F3.0309354324158977
sa(dp3447
g2
(I300
I303
tp3448
sg4
(I297
I283
tp3449
sg6
(lp3450
I298
aI293
asg8
F1476791583324.069
sg9
(I147
I184
tp3451
sg11
F2.992702705980296
sa(dp3452
g2
(I300
I302
tp3453
sg4
(I297
I283
tp3454
sg6
(lp3455
I298
aI292
asg8
F1476791583394.343
sg9
(I148
I184
tp3456
sg11
F2.984990776607778
sa(dp3457
g2
(I299
I303
tp3458
sg4
(I297
I283
tp3459
sg6
(lp3460
I298
aI293
asg8
F1476791583488.6628
sg9
(I147
I184
tp3461
sg11
F3.0419240010986313
sa(dp3462
g2
(I299
I302
tp3463
sg4
(I297
I283
tp3464
sg6
(lp3465
I298
aI292
asg8
F1476791583575.8892
sg9
(I148
I184
tp3466
sg11
F3.036715714859559
sa(dp3467
g2
(I300
I302
tp3468
sg4
(I297
I283
tp3469
sg6
(lp3470
I298
aI292
asg8
F1476791583674.221
sg9
(I147
I184
tp3471
sg11
F2.984990776607778
sa(dp3472
g2
(I300
I302
tp3473
sg4
(I297
I283
tp3474
sg6
(lp3475
I298
aI292
asg8
F1476791583772.79
sg9
(I148
I184
tp3476
sg11
F2.984990776607778
sa(dp3477
g2
(I300
I302
tp3478
sg4
(I298
I283
tp3479
sg6
(lp3480
I299
aI292
asg8
F1476791583875.67
sg9
(I148
I184
tp3481
sg11
F3.036715714859559
sa(dp3482
g2
(I299
I302
tp3483
sg4
(I297
I283
tp3484
sg6
(lp3485
I298
aI292
asg8
F1476791583996.429
sg9
(I148
I184
tp3486
sg11
F3.036715714859559
sa(dp3487
g2
(I300
I302
tp3488
sg4
(I297
I283
tp3489
sg6
(lp3490
I298
aI292
asg8
F1476791584081.887
sg9
(I148
I184
tp3491
sg11
F2.984990776607778
sa(dp3492
g2
(I300
I302
tp3493
sg4
(I297
I283
tp3494
sg6
(lp3495
I298
aI292
asg8
F1476791584172.138
sg9
(I148
I184
tp3496
sg11
F2.984990776607778
sa(dp3497
g2
(I299
I302
tp3498
sg4
(I297
I283
tp3499
sg6
(lp3500
I298
aI292
asg8
F1476791584263.823
sg9
(I148
I184
tp3501
sg11
F3.036715714859559
sa(dp3502
g2
(I299
I302
tp3503
sg4
(I298
I283
tp3504
sg6
(lp3505
I298
aI292
asg8
F1476791584365.602
sg9
(I148
I184
tp3506
sg11
F3.0890095919788516
sa(dp3507
g2
(I300
I302
tp3508
sg4
(I297
I283
tp3509
sg6
(lp3510
I298
aI292
asg8
F1476791584450.365
sg9
(I147
I184
tp3511
sg11
F2.984990776607778
sa.